

Microchip MPLAB XC8 Assembler V2.45 build 20230818022343 
                                                                                               Sat Aug 31 23:01:18 2024

Microchip MPLAB XC8 C Compiler v2.45 (Free license) build 20230818022343 Og1 
     1                           	processor	18F4620
     2                           	fnconf	rparam,??,?,0
     3                           	pagewidth 120
     4                           	opt	flic
     5                           	psect	idataCOMRAM,global,class=CODE,delta=1,noexec
     6                           	psect	idataBANK0,global,class=CODE,delta=1,noexec
     7                           	psect	smallconst,global,reloc=2,class=SMALLCONST,delta=1,noexec
     8                           	psect	cinit,global,reloc=2,class=CODE,delta=1
     9                           	psect	bssCOMRAM,global,class=COMRAM,space=1,delta=1,lowdata,noexec
    10                           	psect	dataCOMRAM,global,class=COMRAM,space=1,delta=1,lowdata,noexec
    11                           	psect	bssBANK0,global,class=BANK0,space=1,delta=1,lowdata,noexec
    12                           	psect	dataBANK0,global,class=BANK0,space=1,delta=1,lowdata,noexec
    13                           	psect	cstackBANK0,global,class=BANK0,space=1,delta=1,lowdata,noexec
    14                           	psect	cstackCOMRAM,global,class=COMRAM,space=1,delta=1,lowdata,noexec
    15                           	psect	text0,global,reloc=2,class=CODE,delta=1
    16                           	psect	text1,global,reloc=2,class=CODE,delta=1
    17                           	psect	text2,global,reloc=2,class=CODE,delta=1
    18                           	psect	text3,global,reloc=2,class=CODE,delta=1
    19                           	psect	text4,global,reloc=2,class=CODE,delta=1
    20                           	psect	text5,global,reloc=2,class=CODE,delta=1
    21                           	psect	text6,global,reloc=2,class=CODE,delta=1
    22                           	psect	intcodelo,global,reloc=2,class=CODE,delta=1
    23                           	psect	text8,global,reloc=2,class=CODE,delta=1
    24                           	psect	text9,global,reloc=2,class=CODE,delta=1
    25                           	psect	text10,global,reloc=2,class=CODE,delta=1
    26                           	psect	text11,global,reloc=2,class=CODE,delta=1
    27                           	psect	text12,global,reloc=2,class=CODE,delta=1
    28                           	psect	text13,global,reloc=2,class=CODE,delta=1
    29                           	psect	text14,global,reloc=2,class=CODE,delta=1
    30                           	psect	text15,global,reloc=2,class=CODE,delta=1
    31                           	psect	text16,global,reloc=2,class=CODE,delta=1
    32                           	psect	text17,global,reloc=2,class=CODE,delta=1
    33                           	psect	text18,global,reloc=2,class=CODE,delta=1
    34                           	psect	text19,global,reloc=2,class=CODE,delta=1
    35                           	psect	text20,global,reloc=2,class=CODE,delta=1
    36                           	psect	text21,global,reloc=2,class=CODE,delta=1
    37                           	psect	text22,global,reloc=2,class=CODE,delta=1
    38                           	psect	intcode,global,reloc=2,class=CODE,delta=1
    39                           	psect	intcode_body,global,reloc=2,class=CODE,delta=1
    40                           	psect	text24,global,reloc=2,class=CODE,delta=1
    41                           	psect	text25,global,reloc=2,class=CODE,delta=1
    42                           	psect	text26,global,reloc=2,class=CODE,delta=1
    43                           	psect	text27,global,reloc=2,class=CODE,delta=1
    44                           	psect	text28,global,reloc=2,class=CODE,delta=1
    45                           	psect	text29,global,reloc=2,class=CODE,delta=1
    46                           	psect	text30,global,reloc=2,class=CODE,delta=1
    47                           	psect	text31,global,reloc=2,class=CODE,delta=1
    48                           	psect	text32,global,reloc=2,class=CODE,delta=1
    49                           	psect	text33,global,reloc=2,class=CODE,delta=1
    50                           	psect	text34,global,reloc=2,class=CODE,delta=1
    51                           	psect	text35,global,reloc=2,class=CODE,delta=1
    52                           	psect	text36,global,reloc=2,class=CODE,delta=1
    53                           	psect	text37,global,reloc=2,class=CODE,delta=1
    54                           	psect	text38,global,reloc=2,class=CODE,delta=1
    55                           	psect	text39,global,reloc=2,class=CODE,delta=1
    56                           	psect	intsave_regs,global,class=BIGRAM,space=1,delta=1,noexec
    57                           	psect	rparam,global,class=COMRAM,space=1,delta=1,noexec
    58                           	psect	temp,global,ovrld,common,class=COMRAM,space=1,delta=1
    59                           	psect	config,global,abs,ovrld,class=CONFIG,space=4,delta=1,noexec
    60   000000                     
    61                           ; Generated 23/03/2023 GMT
    62                           ; 
    63                           ; Copyright © 2023, Microchip Technology Inc. and its subsidiaries ("Microchip")
    64                           ; All rights reserved.
    65                           ; 
    66                           ; This software is developed by Microchip Technology Inc. and its subsidiaries ("Microch
      +                          ip").
    67                           ; 
    68                           ; Redistribution and use in source and binary forms, with or without modification, are
    69                           ; permitted provided that the following conditions are met:
    70                           ; 
    71                           ;     1. Redistributions of source code must retain the above copyright notice, this lis
      +                          t of
    72                           ;        conditions and the following disclaimer.
    73                           ; 
    74                           ;     2. Redistributions in binary form must reproduce the above copyright notice, this 
      +                          list
    75                           ;        of conditions and the following disclaimer in the documentation and/or other
    76                           ;        materials provided with the distribution. Publication is not required when
    77                           ;        this file is used in an embedded application.
    78                           ; 
    79                           ;     3. Microchip's name may not be used to endorse or promote products derived from th
      +                          is
    80                           ;        software without specific prior written permission.
    81                           ; 
    82                           ; THIS SOFTWARE IS PROVIDED BY MICROCHIP "AS IS" AND ANY EXPRESS OR IMPLIED WARRANTIES,
    83                           ; INCLUDING, BUT NOT LIMITED TO, THE IMPLIED WARRANTIES OF MERCHANTABILITY AND FITNESS F
      +                          OR
    84                           ; PURPOSE ARE DISCLAIMED.  IN NO EVENT SHALL MICROCHIP BE LIABLE FOR ANY DIRECT, INDIREC
      +                          T,
    85                           ; INCIDENTAL, SPECIAL, EXEMPLARY, OR CONSEQUENTIAL DAMAGES (INCLUDING BUT NOT LIMITED TO
    86                           ; PROCUREMENT OF SUBSTITUTE GOODS OR SERVICES; LOSS OF USE, DATA OR PROFITS; OR BUSINESS
    87                           ; INTERRUPTION) HOWSOEVER CAUSED AND ON ANY THEORY OF LIABILITY, WHETHER IN CONTRACT, ST
      +                          RICT
    88                           ; LIABILITY, OR TORT (INCLUDING NEGLIGENCE OR OTHERWISE) ARISING IN ANY WAY OUT OF THE U
      +                          SE OF
    89                           ; THIS SOFTWARE, EVEN IF ADVISED OF THE POSSIBILITY OF SUCH DAMAGE.
    90                           ; 
    91                           ; 
    92                           ; Code-generator required, PIC18F4620 Definitions
    93                           ; 
    94                           ; SFR Addresses
    95   000000                     
    96                           	psect	idataCOMRAM
    97   0017D4                     __pidataCOMRAM:
    98                           	callstack 0
    99                           
   100                           ;initializer for _TRIS_REG
   101   0017D4  92                 	db	146
   102   0017D5  0F                 	db	15
   103   0017D6  93                 	db	147
   104   0017D7  0F                 	db	15
   105   0017D8  94                 	db	148
   106   0017D9  0F                 	db	15
   107   0017DA  95                 	db	149
   108   0017DB  0F                 	db	15
   109   0017DC  96                 	db	150
   110   0017DD  0F                 	db	15
   111                           
   112                           ;initializer for _LAT_REG
   113   0017DE  89                 	db	137
   114   0017DF  0F                 	db	15
   115   0017E0  8A                 	db	138
   116   0017E1  0F                 	db	15
   117   0017E2  8B                 	db	139
   118   0017E3  0F                 	db	15
   119   0017E4  8C                 	db	140
   120   0017E5  0F                 	db	15
   121   0017E6  8D                 	db	141
   122   0017E7  0F                 	db	15
   123                           
   124                           ;initializer for _PORT_REG
   125   0017E8  80                 	db	128
   126   0017E9  0F                 	db	15
   127   0017EA  81                 	db	129
   128   0017EB  0F                 	db	15
   129   0017EC  82                 	db	130
   130   0017ED  0F                 	db	15
   131   0017EE  83                 	db	131
   132   0017EF  0F                 	db	15
   133   0017F0  84                 	db	132
   134   0017F1  0F                 	db	15
   135                           
   136                           ;initializer for _led
   137   0017F2  02                 	db	2
   138                           
   139                           	psect	idataBANK0
   140   001894                     __pidataBANK0:
   141                           	callstack 0
   142                           
   143                           ;initializer for _matrix
   144   001894  37                 	db	55
   145   001895  38                 	db	56
   146   001896  39                 	db	57
   147   001897  2F                 	db	47
   148   001898  34                 	db	52
   149   001899  35                 	db	53
   150   00189A  36                 	db	54
   151   00189B  2A                 	db	42
   152   00189C  31                 	db	49
   153   00189D  32                 	db	50
   154   00189E  33                 	db	51
   155   00189F  2D                 	db	45
   156   0018A0  23                 	db	35
   157   0018A1  30                 	db	48
   158   0018A2  3D                 	db	61
   159   0018A3  2B                 	db	43
   160   000000                     _TMR3L	set	4018
   161   000000                     _TMR3H	set	4019
   162   000000                     _TMR1L	set	4046
   163   000000                     _TMR1H	set	4047
   164   000000                     _TMR0L	set	4054
   165   000000                     _TMR0H	set	4055
   166   000000                     _INTCON2bits	set	4081
   167   000000                     _EECON2	set	4007
   168   000000                     _ADRESL	set	4035
   169   000000                     _ADRESH	set	4036
   170   000000                     _RCONbits	set	4048
   171   000000                     _TRISD	set	3989
   172   000000                     _TRISC	set	3988
   173   000000                     _TRISB	set	3987
   174   000000                     _TRISE	set	3990
   175   000000                     _PIE1bits	set	3997
   176   000000                     _PIR1bits	set	3998
   177   000000                     _ADCON2bits	set	4032
   178   000000                     _ADCON1bits	set	4033
   179   000000                     _ADCON0bits	set	4034
   180   000000                     _LATA	set	3977
   181   000000                     _PORTE	set	3972
   182   000000                     _PORTD	set	3971
   183   000000                     _PORTC	set	3970
   184   000000                     _PORTB	set	3969
   185   000000                     _PORTA	set	3968
   186   000000                     _TRISA	set	3986
   187   000000                     _IPR2bits	set	4002
   188   000000                     _PIR2bits	set	4001
   189   000000                     _PIE2bits	set	4000
   190   000000                     _EECON1bits	set	4006
   191   000000                     _EEDATA	set	4008
   192   000000                     _EEADR	set	4009
   193   000000                     _EEADRH	set	4010
   194   000000                     _IPR1bits	set	3999
   195   000000                     _T0CONbits	set	4053
   196   000000                     _INTCON3bits	set	4080
   197   000000                     _INTCONbits	set	4082
   198   000000                     _T2CONbits	set	4042
   199   000000                     _T1CONbits	set	4045
   200   000000                     _T3CONbits	set	4017
   201   000000                     _LATE	set	3981
   202   000000                     _LATD	set	3980
   203   000000                     _LATC	set	3979
   204   000000                     _LATB	set	3978
   205   000000                     _TMR2	set	4044
   206                           
   207                           	psect	smallconst
   208   001000                     __psmallconst:
   209                           	callstack 0
   210   001000  00                 	db	0
   211   001001                     STR_1:
   212   001001  25                 	db	37
   213   001002  69                 	db	105	;'i'
   214   001003  00                 	db	0
   215   001004  00                 	db	0	; dummy byte at the end
   216   000000                     
   217                           ; #config settings
   218                           
   219                           	psect	cinit
   220   001506                     __pcinit:
   221                           	callstack 0
   222   001506                     start_initialization:
   223                           	callstack 0
   224   001506                     __initialization:
   225                           	callstack 0
   226                           
   227                           ; Initialize objects allocated to BANK0 (16 bytes)
   228                           ; load TBLPTR registers with __pidataBANK0
   229   001506  0E94               	movlw	low __pidataBANK0
   230   001508  6EF6               	movwf	tblptrl,c
   231   00150A  0E18               	movlw	high __pidataBANK0
   232   00150C  6EF7               	movwf	tblptrh,c
   233   00150E  0E00               	movlw	low (__pidataBANK0 shr (0+16))
   234   001510  6EF8               	movwf	tblptru,c
   235   001512  EE00  F080         	lfsr	0,__pdataBANK0
   236   001516  EE10 F010          	lfsr	1,16
   237   00151A                     copy_data0:
   238   00151A  0009               	tblrd		*+
   239   00151C  CFF5 FFEE          	movff	tablat,postinc0
   240   001520  50E5               	movf	postdec1,w,c
   241   001522  50E1               	movf	fsr1l,w,c
   242   001524  E1FA               	bnz	copy_data0
   243                           
   244                           ; Initialize objects allocated to COMRAM (31 bytes)
   245                           ; load TBLPTR registers with __pidataCOMRAM
   246   001526  0ED4               	movlw	low __pidataCOMRAM
   247   001528  6EF6               	movwf	tblptrl,c
   248   00152A  0E17               	movlw	high __pidataCOMRAM
   249   00152C  6EF7               	movwf	tblptrh,c
   250   00152E  0E00               	movlw	low (__pidataCOMRAM shr (0+16))
   251   001530  6EF8               	movwf	tblptru,c
   252   001532  EE00  F048         	lfsr	0,__pdataCOMRAM
   253   001536  EE10 F01F          	lfsr	1,31
   254   00153A                     copy_data1:
   255   00153A  0009               	tblrd		*+
   256   00153C  CFF5 FFEE          	movff	tablat,postinc0
   257   001540  50E5               	movf	postdec1,w,c
   258   001542  50E1               	movf	fsr1l,w,c
   259   001544  E1FA               	bnz	copy_data1
   260                           
   261                           ; Clear objects allocated to BANK0 (11 bytes)
   262   001546  EE00  F090         	lfsr	0,__pbssBANK0
   263   00154A  0E0B               	movlw	11
   264   00154C                     clear_0:
   265   00154C  6AEE               	clrf	postinc0,c
   266   00154E  06E8               	decf	wreg,f,c
   267   001550  E1FD               	bnz	clear_0
   268                           
   269                           ; Clear objects allocated to COMRAM (71 bytes)
   270   001552  EE00  F001         	lfsr	0,__pbssCOMRAM
   271   001556  0E47               	movlw	71
   272   001558                     clear_1:
   273   001558  6AEE               	clrf	postinc0,c
   274   00155A  06E8               	decf	wreg,f,c
   275   00155C  E1FD               	bnz	clear_1
   276   00155E                     end_of_initialization:
   277                           	callstack 0
   278   00155E                     __end_of__initialization:
   279                           	callstack 0
   280   00155E  9077               	bcf	int$flags,0,c	;clear compiler interrupt flag (level 1)
   281   001560  9277               	bcf	int$flags,1,c	;clear compiler interrupt flag (level 2)
   282   001562  0100               	movlb	0
   283   001564  EF52  F00C         	goto	_main	;jump to C main() function
   284                           
   285                           	psect	bssCOMRAM
   286   000001                     __pbssCOMRAM:
   287                           	callstack 0
   288   000001                     	ds	6
   289   000007                     	ds	4
   290   00000B                     _TIMER3_preload_value_default:
   291                           	callstack 0
   292   00000B                     	ds	2
   293   00000D                     _TIMER3_InterruptHandler:
   294                           	callstack 0
   295   00000D                     	ds	2
   296   00000F                     _TIMER2_InterruptHandler:
   297                           	callstack 0
   298   00000F                     	ds	2
   299   000011                     _TIMER1_preload_value_default:
   300                           	callstack 0
   301   000011                     	ds	2
   302   000013                     _TIMER1_InterruptHandler:
   303                           	callstack 0
   304   000013                     	ds	2
   305   000015                     _TIMER0_preload_value_default:
   306                           	callstack 0
   307   000015                     	ds	2
   308   000017                     _TIMER0_InterruptHandler:
   309                           	callstack 0
   310   000017                     	ds	2
   311   000019                     _RBx7_InterruptHandler_LOW:
   312                           	callstack 0
   313   000019                     	ds	2
   314   00001B                     _RBx7_InterruptHandler_HIGH:
   315                           	callstack 0
   316   00001B                     	ds	2
   317   00001D                     _RBx6_InterruptHandler_LOW:
   318                           	callstack 0
   319   00001D                     	ds	2
   320   00001F                     _RBx6_InterruptHandler_HIGH:
   321                           	callstack 0
   322   00001F                     	ds	2
   323   000021                     _RBx5_InterruptHandler_LOW:
   324                           	callstack 0
   325   000021                     	ds	2
   326   000023                     _RBx5_InterruptHandler_HIGH:
   327                           	callstack 0
   328   000023                     	ds	2
   329   000025                     _RBx4_InterruptHandler_LOW:
   330                           	callstack 0
   331   000025                     	ds	2
   332   000027                     _RBx4_InterruptHandler_HIGH:
   333                           	callstack 0
   334   000027                     	ds	2
   335   000029                     _INT2_InterruptHandler:
   336                           	callstack 0
   337   000029                     	ds	2
   338   00002B                     _INT1_InterruptHandler:
   339                           	callstack 0
   340   00002B                     	ds	2
   341   00002D                     _INT0_InterruptHandler:
   342                           	callstack 0
   343   00002D                     	ds	2
   344   00002F                     _ADC_InterruptHandler:
   345                           	callstack 0
   346   00002F                     	ds	2
   347   000031                     _TIMER2_preload_value_default:
   348                           	callstack 0
   349   000031                     	ds	1
   350   000032                     _portb_prev:
   351                           	callstack 0
   352   000032                     	ds	1
   353   000033                     seven_segment_activation_pin_initialize@F3080:
   354                           	callstack 0
   355   000033                     	ds	1
   356   000034                     seven_segment_deactivate@F3074:
   357                           	callstack 0
   358   000034                     	ds	1
   359   000035                     seven_segment_activate@F3068:
   360                           	callstack 0
   361   000035                     	ds	1
   362   000036                     relay_toggle@F3073:
   363                           	callstack 0
   364   000036                     	ds	1
   365   000037                     relay_turn_off@F3068:
   366                           	callstack 0
   367   000037                     	ds	1
   368   000038                     relay_turn_on@F3063:
   369                           	callstack 0
   370   000038                     	ds	1
   371   000039                     relay_initialize@F3058:
   372                           	callstack 0
   373   000039                     	ds	1
   374   00003A                     button_read@F3065:
   375                           	callstack 0
   376   00003A                     	ds	1
   377   00003B                     button_initialize@F3059:
   378                           	callstack 0
   379   00003B                     	ds	1
   380   00003C                     led_toggle@F3073:
   381                           	callstack 0
   382   00003C                     	ds	1
   383   00003D                     led_turn_off@F3068:
   384                           	callstack 0
   385   00003D                     	ds	1
   386   00003E                     led_turn_on@F3063:
   387                           	callstack 0
   388   00003E                     	ds	1
   389   00003F                     led_initialize@F3058:
   390                           	callstack 0
   391   00003F                     	ds	1
   392   000040                     motor_stop@F3084:
   393                           	callstack 0
   394   000040                     	ds	1
   395   000041                     motor_stop@F3082:
   396                           	callstack 0
   397   000041                     	ds	1
   398   000042                     motor_rotate_left@F3077:
   399                           	callstack 0
   400   000042                     	ds	1
   401   000043                     motor_rotate_left@F3075:
   402                           	callstack 0
   403   000043                     	ds	1
   404   000044                     motor_rotate_right@F3070:
   405                           	callstack 0
   406   000044                     	ds	1
   407   000045                     motor_rotate_right@F3068:
   408                           	callstack 0
   409   000045                     	ds	1
   410   000046                     motor_initialize@F3063:
   411                           	callstack 0
   412   000046                     	ds	1
   413   000047                     motor_initialize@F3061:
   414                           	callstack 0
   415   000047                     	ds	1
   416                           
   417                           	psect	dataCOMRAM
   418   000048                     __pdataCOMRAM:
   419                           	callstack 0
   420   000048                     _TRIS_REG:
   421                           	callstack 0
   422   000048                     	ds	10
   423   000052                     _LAT_REG:
   424                           	callstack 0
   425   000052                     	ds	10
   426   00005C                     _PORT_REG:
   427                           	callstack 0
   428   00005C                     	ds	10
   429   000066                     _led:
   430                           	callstack 0
   431   000066                     	ds	1
   432                           
   433                           	psect	bssBANK0
   434   000090                     __pbssBANK0:
   435                           	callstack 0
   436   000090                     	ds	11
   437                           
   438                           	psect	dataBANK0
   439   000080                     __pdataBANK0:
   440                           	callstack 0
   441   000080                     _matrix:
   442                           	callstack 0
   443   000080                     	ds	16
   444                           
   445                           	psect	cstackBANK0
   446   00009B                     __pcstackBANK0:
   447                           	callstack 0
   448   00009B                     ??_gpio_pin_initialize:
   449                           
   450                           ; 1 bytes @ 0x0
   451   00009B                     	ds	1
   452   00009C                     led_initialize@ptr:
   453                           	callstack 0
   454                           
   455                           ; 1 bytes @ 0x1
   456   00009C                     	ds	1
   457   00009D                     ??_led_initialize:
   458                           
   459                           ; 1 bytes @ 0x2
   460   00009D                     	ds	1
   461   00009E                     led_initialize@led:
   462                           	callstack 0
   463                           
   464                           ; 1 bytes @ 0x3
   465   00009E                     	ds	1
   466                           
   467                           	psect	cstackCOMRAM
   468   000067                     __pcstackCOMRAM:
   469                           	callstack 0
   470   000067                     ??i2_RB4_ISR:
   471   000067                     ??i2_RB5_ISR:
   472   000067                     ??i2_RB6_ISR:
   473   000067                     ??i2_RB7_ISR:
   474   000067                     i2TIMER2_WRITE@data:
   475                           	callstack 0
   476   000067                     i2TIMER0_WRITE@data:
   477                           	callstack 0
   478   000067                     i2TIMER1_WRITE@data:
   479                           	callstack 0
   480   000067                     i2TIMER3_WRITE@data:
   481                           	callstack 0
   482                           
   483                           ; 2 bytes @ 0x0
   484   000067                     	ds	1
   485   000068                     
   486                           ; 1 bytes @ 0x1
   487   000068                     	ds	1
   488   000069                     ??_ISR_HIGH:
   489   000069                     
   490                           ; 1 bytes @ 0x2
   491   000069                     	ds	1
   492   00006A                     ??_RB4_ISR:
   493   00006A                     ??_RB5_ISR:
   494   00006A                     ??_RB6_ISR:
   495   00006A                     ??_RB7_ISR:
   496   00006A                     TIMER2_WRITE@data:
   497                           	callstack 0
   498   00006A                     TIMER0_WRITE@data:
   499                           	callstack 0
   500   00006A                     TIMER1_WRITE@data:
   501                           	callstack 0
   502   00006A                     TIMER3_WRITE@data:
   503                           	callstack 0
   504                           
   505                           ; 2 bytes @ 0x3
   506   00006A                     	ds	1
   507   00006B                     
   508                           ; 1 bytes @ 0x4
   509   00006B                     	ds	1
   510   00006C                     ??_ISR_LOW:
   511                           
   512                           ; 1 bytes @ 0x5
   513   00006C                     	ds	3
   514   00006F                     gpio_pin_direction_initialize@ptr:
   515                           	callstack 0
   516   00006F                     gpio_pin_write@ptr:
   517                           	callstack 0
   518                           
   519                           ; 1 bytes @ 0x8
   520   00006F                     	ds	1
   521   000070                     ??_gpio_pin_direction_initialize:
   522   000070                     gpio_pin_write@logic:
   523                           	callstack 0
   524                           
   525                           ; 1 bytes @ 0x9
   526   000070                     	ds	1
   527   000071                     ??_gpio_pin_write:
   528                           
   529                           ; 1 bytes @ 0xA
   530   000071                     	ds	5
   531   000076                     gpio_pin_initialize@ptr:
   532                           	callstack 0
   533                           
   534                           ; 1 bytes @ 0xF
   535   000076                     	ds	1
   536   000077                     
   537                           ; 1 bytes @ 0x10
   538 ;;
   539 ;;Main: autosize = 0, tempsize = 0, incstack = 0, save=0
   540 ;;
   541 ;; *************** function _main *****************
   542 ;; Defined at:
   543 ;;		line 8 in file "application.c"
   544 ;; Parameters:    Size  Location     Type
   545 ;;		None
   546 ;; Auto vars:     Size  Location     Type
   547 ;;		None
   548 ;; Return value:  Size  Location     Type
   549 ;;                  2  1226[None  ] int 
   550 ;; Registers used:
   551 ;;		wreg, fsr2l, fsr2h, status,2, status,0, prodl, prodh, cstack
   552 ;; Tracked objects:
   553 ;;		On entry : 0/0
   554 ;;		On exit  : 0/0
   555 ;;		Unchanged: 0/0
   556 ;; Data sizes:     COMRAM   BANK0   BANK1   BANK2   BANK3   BANK4   BANK5   BANK6   BANK7   BANK8   BANK9  BANK10  BANK1
      +1  BANK12  BANK13  BANK14  BANK15
   557 ;;      Params:         0       0       0       0       0       0       0       0       0       0       0       0       
      +0       0       0       0       0
   558 ;;      Locals:         0       0       0       0       0       0       0       0       0       0       0       0       
      +0       0       0       0       0
   559 ;;      Temps:          0       0       0       0       0       0       0       0       0       0       0       0       
      +0       0       0       0       0
   560 ;;      Totals:         0       0       0       0       0       0       0       0       0       0       0       0       
      +0       0       0       0       0
   561 ;;Total ram usage:        0 bytes
   562 ;; Hardware stack levels required when called: 11
   563 ;; This function calls:
   564 ;;		_application_initialize
   565 ;; This function is called by:
   566 ;;		Startup code after reset
   567 ;; This function uses a non-reentrant model
   568 ;;
   569                           
   570                           	psect	text0
   571   0018A4                     __ptext0:
   572                           	callstack 0
   573   0018A4                     _main:
   574                           	callstack 20
   575   0018A4                     
   576                           ;application.c: 10:     application_initialize();
   577   0018A4  EC6A  F00C         	call	_application_initialize	;wreg free
   578   0018A8                     l1227:
   579   0018A8  EF54  F00C         	goto	l1227
   580   0018AC  EF14  F001         	goto	start
   581   0018B0                     __end_of_main:
   582                           	callstack 0
   583                           
   584 ;; *************** function _application_initialize *****************
   585 ;; Defined at:
   586 ;;		line 17 in file "application.c"
   587 ;; Parameters:    Size  Location     Type
   588 ;;		None
   589 ;; Auto vars:     Size  Location     Type
   590 ;;		None
   591 ;; Return value:  Size  Location     Type
   592 ;;                  1    wreg      void 
   593 ;; Registers used:
   594 ;;		wreg, fsr2l, fsr2h, status,2, status,0, prodl, prodh, cstack
   595 ;; Tracked objects:
   596 ;;		On entry : 0/0
   597 ;;		On exit  : 0/0
   598 ;;		Unchanged: 0/0
   599 ;; Data sizes:     COMRAM   BANK0   BANK1   BANK2   BANK3   BANK4   BANK5   BANK6   BANK7   BANK8   BANK9  BANK10  BANK1
      +1  BANK12  BANK13  BANK14  BANK15
   600 ;;      Params:         0       0       0       0       0       0       0       0       0       0       0       0       
      +0       0       0       0       0
   601 ;;      Locals:         0       0       0       0       0       0       0       0       0       0       0       0       
      +0       0       0       0       0
   602 ;;      Temps:          0       0       0       0       0       0       0       0       0       0       0       0       
      +0       0       0       0       0
   603 ;;      Totals:         0       0       0       0       0       0       0       0       0       0       0       0       
      +0       0       0       0       0
   604 ;;Total ram usage:        0 bytes
   605 ;; Hardware stack levels used: 1
   606 ;; Hardware stack levels required when called: 10
   607 ;; This function calls:
   608 ;;		_ECU_layer_initialize
   609 ;; This function is called by:
   610 ;;		_main
   611 ;; This function uses a non-reentrant model
   612 ;;
   613                           
   614                           	psect	text1
   615   0018D4                     __ptext1:
   616                           	callstack 0
   617   0018D4                     _application_initialize:
   618                           	callstack 20
   619   0018D4                     
   620                           ;application.c: 19:     ECU_layer_initialize();
   621   0018D4  EC58  F00C         	call	_ECU_layer_initialize	;wreg free
   622   0018D8  0012               	return		;funcret
   623   0018DA                     __end_of_application_initialize:
   624                           	callstack 0
   625                           
   626 ;; *************** function _ECU_layer_initialize *****************
   627 ;; Defined at:
   628 ;;		line 3 in file "ECU_LAYER/ECU_layer_initialisation.c"
   629 ;; Parameters:    Size  Location     Type
   630 ;;		None
   631 ;; Auto vars:     Size  Location     Type
   632 ;;		None
   633 ;; Return value:  Size  Location     Type
   634 ;;                  1    wreg      void 
   635 ;; Registers used:
   636 ;;		wreg, fsr2l, fsr2h, status,2, status,0, prodl, prodh, cstack
   637 ;; Tracked objects:
   638 ;;		On entry : 0/0
   639 ;;		On exit  : 0/0
   640 ;;		Unchanged: 0/0
   641 ;; Data sizes:     COMRAM   BANK0   BANK1   BANK2   BANK3   BANK4   BANK5   BANK6   BANK7   BANK8   BANK9  BANK10  BANK1
      +1  BANK12  BANK13  BANK14  BANK15
   642 ;;      Params:         0       0       0       0       0       0       0       0       0       0       0       0       
      +0       0       0       0       0
   643 ;;      Locals:         0       0       0       0       0       0       0       0       0       0       0       0       
      +0       0       0       0       0
   644 ;;      Temps:          0       0       0       0       0       0       0       0       0       0       0       0       
      +0       0       0       0       0
   645 ;;      Totals:         0       0       0       0       0       0       0       0       0       0       0       0       
      +0       0       0       0       0
   646 ;;Total ram usage:        0 bytes
   647 ;; Hardware stack levels used: 1
   648 ;; Hardware stack levels required when called: 9
   649 ;; This function calls:
   650 ;;		_led_initialize
   651 ;; This function is called by:
   652 ;;		_application_initialize
   653 ;; This function uses a non-reentrant model
   654 ;;
   655                           
   656                           	psect	text2
   657   0018B0                     __ptext2:
   658                           	callstack 0
   659   0018B0                     _ECU_layer_initialize:
   660                           	callstack 20
   661   0018B0                     
   662                           ;ECU_LAYER/ECU_layer_initialisation.c: 5:      led_initialize(&led);
   663   0018B0  0E66               	movlw	low _led
   664   0018B2  0100               	movlb	0	; () banked
   665   0018B4  6F9C               	movwf	led_initialize@ptr& (0+255),b
   666   0018B6  ECFA  F009         	call	_led_initialize	;wreg free
   667   0018BA  0012               	return		;funcret
   668   0018BC                     __end_of_ECU_layer_initialize:
   669                           	callstack 0
   670                           
   671 ;; *************** function _led_initialize *****************
   672 ;; Defined at:
   673 ;;		line 2 in file "ECU_LAYER/LED/led.c"
   674 ;; Parameters:    Size  Location     Type
   675 ;;  ptr             1    1[BANK0 ] PTR const struct .
   676 ;;		 -> led(1), 
   677 ;; Auto vars:     Size  Location     Type
   678 ;;  led             1    3[BANK0 ] struct .
   679 ;;  ret             1    0        unsigned char 
   680 ;; Return value:  Size  Location     Type
   681 ;;                  1    wreg      unsigned char 
   682 ;; Registers used:
   683 ;;		wreg, fsr2l, fsr2h, status,2, status,0, prodl, prodh, cstack
   684 ;; Tracked objects:
   685 ;;		On entry : 0/0
   686 ;;		On exit  : 0/0
   687 ;;		Unchanged: 0/0
   688 ;; Data sizes:     COMRAM   BANK0   BANK1   BANK2   BANK3   BANK4   BANK5   BANK6   BANK7   BANK8   BANK9  BANK10  BANK1
      +1  BANK12  BANK13  BANK14  BANK15
   689 ;;      Params:         0       1       0       0       0       0       0       0       0       0       0       0       
      +0       0       0       0       0
   690 ;;      Locals:         0       1       0       0       0       0       0       0       0       0       0       0       
      +0       0       0       0       0
   691 ;;      Temps:          0       1       0       0       0       0       0       0       0       0       0       0       
      +0       0       0       0       0
   692 ;;      Totals:         0       3       0       0       0       0       0       0       0       0       0       0       
      +0       0       0       0       0
   693 ;;Total ram usage:        3 bytes
   694 ;; Hardware stack levels used: 1
   695 ;; Hardware stack levels required when called: 8
   696 ;; This function calls:
   697 ;;		_gpio_pin_initialize
   698 ;; This function is called by:
   699 ;;		_ECU_layer_initialize
   700 ;; This function uses a non-reentrant model
   701 ;;
   702                           
   703                           	psect	text3
   704   0013F4                     __ptext3:
   705                           	callstack 0
   706   0013F4                     _led_initialize:
   707                           	callstack 20
   708   0013F4                     
   709                           ;ECU_LAYER/LED/led.c: 5:     if((ptr->port_index==5)||(ptr->pin_index==8)||(((void*)0)==
      +                          ptr)){ret=0X00 ;}
   710   0013F4  0100               	movlb	0	; () banked
   711   0013F6  519C               	movf	led_initialize@ptr& (0+255),w,b
   712   0013F8  6ED9               	movwf	fsr2l,c
   713   0013FA  6ADA               	clrf	fsr2h,c
   714   0013FC  50DF               	movf	223,w,c
   715   0013FE  0B0F               	andlw	15
   716   001400  0A05               	xorlw	5
   717   001402  B4D8               	btfsc	status,2,c
   718   001404  EF06  F00A         	goto	u5361
   719   001408  EF08  F00A         	goto	u5360
   720   00140C                     u5361:
   721   00140C  EF1D  F00A         	goto	l5780
   722   001410                     u5360:
   723   001410                     
   724                           ; BSR set to: 0
   725   001410  519C               	movf	led_initialize@ptr& (0+255),w,b
   726   001412  6ED9               	movwf	fsr2l,c
   727   001414  6ADA               	clrf	fsr2h,c
   728   001416  38DF               	swapf	223,w,c
   729   001418  0B07               	andlw	7
   730   00141A  0A08               	xorlw	8
   731   00141C  B4D8               	btfsc	status,2,c
   732   00141E  EF13  F00A         	goto	u5371
   733   001422  EF15  F00A         	goto	u5370
   734   001426                     u5371:
   735   001426  EF1D  F00A         	goto	l5780
   736   00142A                     u5370:
   737   00142A                     
   738                           ; BSR set to: 0
   739   00142A  519C               	movf	led_initialize@ptr& (0+255),w,b
   740   00142C  A4D8               	btfss	status,2,c
   741   00142E  EF1B  F00A         	goto	u5381
   742   001432  EF1D  F00A         	goto	u5380
   743   001436                     u5381:
   744   001436  EF1F  F00A         	goto	l288
   745   00143A                     u5380:
   746   00143A                     l5780:
   747                           
   748                           ; BSR set to: 0
   749   00143A  EF49  F00A         	goto	l294
   750   00143E                     l288:
   751                           
   752                           ; BSR set to: 0
   753                           ;ECU_LAYER/LED/led.c: 7:     {;ECU_LAYER/LED/led.c: 8:        pin_config led={
   754   00143E  C03F  F09E         	movff	led_initialize@F3058,led_initialize@led
   755   001442                     
   756                           ; BSR set to: 0
   757   001442  519C               	movf	led_initialize@ptr& (0+255),w,b
   758   001444  6ED9               	movwf	fsr2l,c
   759   001446  6ADA               	clrf	fsr2h,c
   760   001448  AEDF               	btfss	indf2,7,c
   761   00144A  D002               	bra	u5395
   762   00144C  819E               	bsf	led_initialize@led& (0+255),0,b
   763   00144E  D002               	bra	u5397
   764   001450                     u5395:
   765   001450  0100               	movlb	0	; () banked
   766   001452  919E               	bcf	led_initialize@led& (0+255),0,b
   767   001454                     u5397:
   768   001454                     
   769                           ; BSR set to: 0
   770   001454  939E               	bcf	led_initialize@led& (0+255),1,b
   771   001456                     
   772                           ; BSR set to: 0
   773   001456  519C               	movf	led_initialize@ptr& (0+255),w,b
   774   001458  6ED9               	movwf	fsr2l,c
   775   00145A  6ADA               	clrf	fsr2h,c
   776   00145C  38DF               	swapf	223,w,c
   777   00145E  0B07               	andlw	7
   778   001460  6F9D               	movwf	??_led_initialize& (0+255),b
   779   001462  479D               	rlncf	??_led_initialize& (0+255),f,b
   780   001464  479D               	rlncf	??_led_initialize& (0+255),f,b
   781   001466  519E               	movf	led_initialize@led& (0+255),w,b
   782   001468  199D               	xorwf	??_led_initialize& (0+255),w,b
   783   00146A  0BE3               	andlw	-29
   784   00146C  199D               	xorwf	??_led_initialize& (0+255),w,b
   785   00146E  6F9E               	movwf	led_initialize@led& (0+255),b
   786   001470                     
   787                           ; BSR set to: 0
   788   001470  519C               	movf	led_initialize@ptr& (0+255),w,b
   789   001472  6ED9               	movwf	fsr2l,c
   790   001474  6ADA               	clrf	fsr2h,c
   791   001476  50DF               	movf	223,w,c
   792   001478  0B0F               	andlw	15
   793   00147A  6F9D               	movwf	??_led_initialize& (0+255),b
   794   00147C  3B9D               	swapf	??_led_initialize& (0+255),f,b
   795   00147E  479D               	rlncf	??_led_initialize& (0+255),f,b
   796   001480  519E               	movf	led_initialize@led& (0+255),w,b
   797   001482  199D               	xorwf	??_led_initialize& (0+255),w,b
   798   001484  0B1F               	andlw	-225
   799   001486  199D               	xorwf	??_led_initialize& (0+255),w,b
   800   001488  6F9E               	movwf	led_initialize@led& (0+255),b
   801   00148A                     
   802                           ; BSR set to: 0
   803                           ;ECU_LAYER/LED/led.c: 14:        gpio_pin_initialize(&led);
   804   00148A  0E9E               	movlw	low led_initialize@led
   805   00148C  6E76               	movwf	gpio_pin_initialize@ptr^0,c
   806   00148E  EC4A  F00A         	call	_gpio_pin_initialize	;wreg free
   807   001492                     l294:
   808   001492  0012               	return		;funcret
   809   001494                     __end_of_led_initialize:
   810                           	callstack 0
   811                           
   812 ;; *************** function _gpio_pin_initialize *****************
   813 ;; Defined at:
   814 ;;		line 141 in file "MCAL_LAYER/GPIO/gpio.c"
   815 ;; Parameters:    Size  Location     Type
   816 ;;  ptr             1   15[COMRAM] PTR const struct .
   817 ;;		 -> Interrupt_RBx_Pin_Configure@pin(1), Interrupt_INTx_Pin_Configure@pin(1), seven_segment_activation_pin_initialize
      +@activate_pin(1), relay_initialize@relay(1), 
   818 ;;		 -> led_initialize@led(1), 
   819 ;; Auto vars:     Size  Location     Type
   820 ;;  ret             1    0        unsigned char 
   821 ;; Return value:  Size  Location     Type
   822 ;;                  1    wreg      unsigned char 
   823 ;; Registers used:
   824 ;;		wreg, fsr2l, fsr2h, status,2, status,0, prodl, prodh, cstack
   825 ;; Tracked objects:
   826 ;;		On entry : 0/0
   827 ;;		On exit  : 0/0
   828 ;;		Unchanged: 0/0
   829 ;; Data sizes:     COMRAM   BANK0   BANK1   BANK2   BANK3   BANK4   BANK5   BANK6   BANK7   BANK8   BANK9  BANK10  BANK1
      +1  BANK12  BANK13  BANK14  BANK15
   830 ;;      Params:         1       0       0       0       0       0       0       0       0       0       0       0       
      +0       0       0       0       0
   831 ;;      Locals:         0       0       0       0       0       0       0       0       0       0       0       0       
      +0       0       0       0       0
   832 ;;      Temps:          0       1       0       0       0       0       0       0       0       0       0       0       
      +0       0       0       0       0
   833 ;;      Totals:         1       1       0       0       0       0       0       0       0       0       0       0       
      +0       0       0       0       0
   834 ;;Total ram usage:        2 bytes
   835 ;; Hardware stack levels used: 1
   836 ;; Hardware stack levels required when called: 7
   837 ;; This function calls:
   838 ;;		_gpio_pin_direction_initialize
   839 ;;		_gpio_pin_write
   840 ;; This function is called by:
   841 ;;		_led_initialize
   842 ;;		_lcd_8bit_initialize
   843 ;;		_lcd_4bit_initialize
   844 ;;		_keypad_initialize
   845 ;;		_relay_initialize
   846 ;;		_seven_segment_initialize
   847 ;;		_seven_segment_activation_pin_initialize
   848 ;;		_Interrupt_INTx_Pin_Configure
   849 ;;		_Interrupt_RBx_Pin_Configure
   850 ;; This function uses a non-reentrant model
   851 ;;
   852                           
   853                           	psect	text4
   854   001494                     __ptext4:
   855                           	callstack 0
   856   001494                     _gpio_pin_initialize:
   857                           	callstack 20
   858   001494                     
   859                           ;MCAL_LAYER/GPIO/gpio.c: 144:     if((ptr->port_index>=5)||(ptr->pin_index>=8)||(((void*
      +                          )0)==ptr)){ret=0X00 ;}
   860   001494  5076               	movf	gpio_pin_initialize@ptr^0,w,c
   861   001496  6ED9               	movwf	fsr2l,c
   862   001498  6ADA               	clrf	fsr2h,c
   863   00149A  38DF               	swapf	223,w,c
   864   00149C  32E8               	rrcf	wreg,f,c
   865   00149E  0B07               	andlw	7
   866   0014A0  0100               	movlb	0	; () banked
   867   0014A2  6F9B               	movwf	??_gpio_pin_initialize& (0+255),b
   868   0014A4  0E05               	movlw	5
   869   0014A6  619B               	cpfslt	??_gpio_pin_initialize& (0+255),b
   870   0014A8  EF58  F00A         	goto	u5331
   871   0014AC  EF5A  F00A         	goto	u5330
   872   0014B0                     u5331:
   873   0014B0  EF71  F00A         	goto	l5764
   874   0014B4                     u5330:
   875   0014B4                     
   876                           ; BSR set to: 0
   877   0014B4  5076               	movf	gpio_pin_initialize@ptr^0,w,c
   878   0014B6  6ED9               	movwf	fsr2l,c
   879   0014B8  6ADA               	clrf	fsr2h,c
   880   0014BA  30DF               	rrcf	223,w,c
   881   0014BC  32E8               	rrcf	wreg,f,c
   882   0014BE  0B07               	andlw	7
   883   0014C0  6F9B               	movwf	??_gpio_pin_initialize& (0+255),b
   884   0014C2  0E08               	movlw	8
   885   0014C4  619B               	cpfslt	??_gpio_pin_initialize& (0+255),b
   886   0014C6  EF67  F00A         	goto	u5341
   887   0014CA  EF69  F00A         	goto	u5340
   888   0014CE                     u5341:
   889   0014CE  EF71  F00A         	goto	l5764
   890   0014D2                     u5340:
   891   0014D2                     
   892                           ; BSR set to: 0
   893   0014D2  5076               	movf	gpio_pin_initialize@ptr^0,w,c
   894   0014D4  A4D8               	btfss	status,2,c
   895   0014D6  EF6F  F00A         	goto	u5351
   896   0014DA  EF71  F00A         	goto	u5350
   897   0014DE                     u5351:
   898   0014DE  EF73  F00A         	goto	l5766
   899   0014E2                     u5350:
   900   0014E2                     l5764:
   901                           
   902                           ; BSR set to: 0
   903   0014E2  EF82  F00A         	goto	l678
   904   0014E6                     l5766:
   905                           
   906                           ; BSR set to: 0
   907                           ;MCAL_LAYER/GPIO/gpio.c: 146:     {;MCAL_LAYER/GPIO/gpio.c: 147:         gpio_pin_direct
      +                          ion_initialize(ptr);
   908   0014E6  C076  F06F         	movff	gpio_pin_initialize@ptr,gpio_pin_direction_initialize@ptr
   909   0014EA  EC12  F009         	call	_gpio_pin_direction_initialize	;wreg free
   910                           
   911                           ;MCAL_LAYER/GPIO/gpio.c: 148:         gpio_pin_write(ptr,ptr->logic);
   912   0014EE  C076  F06F         	movff	gpio_pin_initialize@ptr,gpio_pin_write@ptr
   913   0014F2  5076               	movf	gpio_pin_initialize@ptr^0,w,c
   914   0014F4  6ED9               	movwf	fsr2l,c
   915   0014F6  6ADA               	clrf	fsr2h,c
   916   0014F8  0E00               	movlw	0
   917   0014FA  B0DF               	btfsc	indf2,0,c
   918   0014FC  0E01               	movlw	1
   919   0014FE  6E70               	movwf	gpio_pin_write@logic^0,c
   920   001500  EC96  F009         	call	_gpio_pin_write	;wreg free
   921   001504                     l678:
   922   001504  0012               	return		;funcret
   923   001506                     __end_of_gpio_pin_initialize:
   924                           	callstack 0
   925                           
   926 ;; *************** function _gpio_pin_write *****************
   927 ;; Defined at:
   928 ;;		line 106 in file "MCAL_LAYER/GPIO/gpio.c"
   929 ;; Parameters:    Size  Location     Type
   930 ;;  ptr             1    8[COMRAM] PTR const struct .
   931 ;;		 -> Interrupt_RBx_Pin_Configure@pin(1), Interrupt_INTx_Pin_Configure@pin(1), seven_segment_activation_pin_initialize
      +@activate_pin(1), seven_segment_deactivate@activate_pin(1), 
   932 ;;		 -> seven_segment_activate@activate_pin(1), relay_turn_off@relay(1), relay_turn_on@relay(1), relay_initialize@relay(
      +1), 
   933 ;;		 -> led_turn_off@led(1), led_turn_on@led(1), led_initialize@led(1), motor_stop@motor_pin2(1), 
   934 ;;		 -> motor_stop@motor_pin1(1), motor_rotate_left@motor_pin2(1), motor_rotate_left@motor_pin1(1), motor_rotate_right@m
      +otor_pin2(1), 
   935 ;;		 -> motor_rotate_right@motor_pin1(1), 
   936 ;;  logic           1    9[COMRAM] enum E2978
   937 ;; Auto vars:     Size  Location     Type
   938 ;;  ret             1    0        unsigned char 
   939 ;; Return value:  Size  Location     Type
   940 ;;                  1    wreg      unsigned char 
   941 ;; Registers used:
   942 ;;		wreg, fsr2l, fsr2h, status,2, status,0, prodl, prodh
   943 ;; Tracked objects:
   944 ;;		On entry : 0/0
   945 ;;		On exit  : 0/0
   946 ;;		Unchanged: 0/0
   947 ;; Data sizes:     COMRAM   BANK0   BANK1   BANK2   BANK3   BANK4   BANK5   BANK6   BANK7   BANK8   BANK9  BANK10  BANK1
      +1  BANK12  BANK13  BANK14  BANK15
   948 ;;      Params:         2       0       0       0       0       0       0       0       0       0       0       0       
      +0       0       0       0       0
   949 ;;      Locals:         0       0       0       0       0       0       0       0       0       0       0       0       
      +0       0       0       0       0
   950 ;;      Temps:          5       0       0       0       0       0       0       0       0       0       0       0       
      +0       0       0       0       0
   951 ;;      Totals:         7       0       0       0       0       0       0       0       0       0       0       0       
      +0       0       0       0       0
   952 ;;Total ram usage:        7 bytes
   953 ;; Hardware stack levels used: 1
   954 ;; Hardware stack levels required when called: 6
   955 ;; This function calls:
   956 ;;		Nothing
   957 ;; This function is called by:
   958 ;;		_gpio_pin_initialize
   959 ;;		_lcd_8bit_send_command
   960 ;;		_lcd_8bit_send_data
   961 ;;		_lcd_4bit_send_command
   962 ;;		_lcd_4bit_send_data
   963 ;;		_lcd_send_4bits_data_command
   964 ;;		_lcd_send_enable_4bit
   965 ;;		_lcd_send_8bits_data_command
   966 ;;		_lcd_send_enable_8bit
   967 ;;		_motor_rotate_right
   968 ;;		_motor_rotate_left
   969 ;;		_motor_stop
   970 ;;		_keypad_get_value
   971 ;;		_led_turn_on
   972 ;;		_led_turn_off
   973 ;;		_relay_turn_on
   974 ;;		_relay_turn_off
   975 ;;		_seven_segment_activate
   976 ;;		_seven_segment_deactivate
   977 ;;		_seven_segment_write
   978 ;; This function uses a non-reentrant model
   979 ;;
   980                           
   981                           	psect	text5
   982   00132C                     __ptext5:
   983                           	callstack 0
   984   00132C                     _gpio_pin_write:
   985                           	callstack 20
   986   00132C                     
   987                           ;MCAL_LAYER/GPIO/gpio.c: 109:     if(((void*)0)==ptr){ret=0X00 ;}
   988   00132C  506F               	movf	gpio_pin_write@ptr^0,w,c
   989   00132E  A4D8               	btfss	status,2,c
   990   001330  EF9C  F009         	goto	u5231
   991   001334  EF9E  F009         	goto	u5230
   992   001338                     u5231:
   993   001338  EFA0  F009         	goto	l5726
   994   00133C                     u5230:
   995   00133C  EFF9  F009         	goto	l657
   996   001340                     l5726:
   997                           
   998                           ;MCAL_LAYER/GPIO/gpio.c: 111:     {;MCAL_LAYER/GPIO/gpio.c: 112:         if(logic==HIGH)
      +                          {(*LAT_REG[ptr->port_index]|=(0X01<<ptr->pin_index));}
   999   001340  0470               	decf	gpio_pin_write@logic^0,w,c
  1000   001342  A4D8               	btfss	status,2,c
  1001   001344  EFA6  F009         	goto	u5241
  1002   001348  EFA8  F009         	goto	u5240
  1003   00134C                     u5241:
  1004   00134C  EFD0  F009         	goto	l5730
  1005   001350                     u5240:
  1006   001350  506F               	movf	gpio_pin_write@ptr^0,w,c
  1007   001352  6ED9               	movwf	fsr2l,c
  1008   001354  6ADA               	clrf	fsr2h,c
  1009   001356  30DF               	rrcf	223,w,c
  1010   001358  32E8               	rrcf	wreg,f,c
  1011   00135A  0B07               	andlw	7
  1012   00135C  6E71               	movwf	??_gpio_pin_write^0,c
  1013   00135E  0E01               	movlw	1
  1014   001360  6E72               	movwf	(??_gpio_pin_write+1)^0,c
  1015   001362  2A71               	incf	??_gpio_pin_write^0,f,c
  1016   001364  EFB6  F009         	goto	u5254
  1017   001368                     u5255:
  1018   001368  90D8               	bcf	status,0,c
  1019   00136A  3672               	rlcf	(??_gpio_pin_write+1)^0,f,c
  1020   00136C                     u5254:
  1021   00136C  2E71               	decfsz	??_gpio_pin_write^0,f,c
  1022   00136E  EFB4  F009         	goto	u5255
  1023   001372  506F               	movf	gpio_pin_write@ptr^0,w,c
  1024   001374  6ED9               	movwf	fsr2l,c
  1025   001376  6ADA               	clrf	fsr2h,c
  1026   001378  38DF               	swapf	223,w,c
  1027   00137A  32E8               	rrcf	wreg,f,c
  1028   00137C  0B07               	andlw	7
  1029   00137E  0D02               	mullw	2
  1030   001380  50F3               	movf	243,w,c
  1031   001382  0F52               	addlw	low _LAT_REG
  1032   001384  6ED9               	movwf	fsr2l,c
  1033   001386  6ADA               	clrf	fsr2h,c
  1034   001388  CFDE F073          	movff	postinc2,??_gpio_pin_write+2
  1035   00138C  CFDD F074          	movff	postdec2,??_gpio_pin_write+3
  1036   001390  C073  FFD9         	movff	??_gpio_pin_write+2,fsr2l
  1037   001394  C074  FFDA         	movff	??_gpio_pin_write+3,fsr2h
  1038   001398  5072               	movf	(??_gpio_pin_write+1)^0,w,c
  1039   00139A  12DF               	iorwf	indf2,f,c
  1040   00139C  EFF9  F009         	goto	l5732
  1041   0013A0                     l5730:
  1042   0013A0  506F               	movf	gpio_pin_write@ptr^0,w,c
  1043   0013A2  6ED9               	movwf	fsr2l,c
  1044   0013A4  6ADA               	clrf	fsr2h,c
  1045   0013A6  30DF               	rrcf	223,w,c
  1046   0013A8  32E8               	rrcf	wreg,f,c
  1047   0013AA  0B07               	andlw	7
  1048   0013AC  6E71               	movwf	??_gpio_pin_write^0,c
  1049   0013AE  0E01               	movlw	1
  1050   0013B0  6E72               	movwf	(??_gpio_pin_write+1)^0,c
  1051   0013B2  2A71               	incf	??_gpio_pin_write^0,f,c
  1052   0013B4  EFDE  F009         	goto	u5264
  1053   0013B8                     u5265:
  1054   0013B8  90D8               	bcf	status,0,c
  1055   0013BA  3672               	rlcf	(??_gpio_pin_write+1)^0,f,c
  1056   0013BC                     u5264:
  1057   0013BC  2E71               	decfsz	??_gpio_pin_write^0,f,c
  1058   0013BE  EFDC  F009         	goto	u5265
  1059   0013C2  5072               	movf	(??_gpio_pin_write+1)^0,w,c
  1060   0013C4  0AFF               	xorlw	255
  1061   0013C6  6E73               	movwf	(??_gpio_pin_write+2)^0,c
  1062   0013C8  506F               	movf	gpio_pin_write@ptr^0,w,c
  1063   0013CA  6ED9               	movwf	fsr2l,c
  1064   0013CC  6ADA               	clrf	fsr2h,c
  1065   0013CE  38DF               	swapf	223,w,c
  1066   0013D0  32E8               	rrcf	wreg,f,c
  1067   0013D2  0B07               	andlw	7
  1068   0013D4  0D02               	mullw	2
  1069   0013D6  50F3               	movf	243,w,c
  1070   0013D8  0F52               	addlw	low _LAT_REG
  1071   0013DA  6ED9               	movwf	fsr2l,c
  1072   0013DC  6ADA               	clrf	fsr2h,c
  1073   0013DE  CFDE F074          	movff	postinc2,??_gpio_pin_write+3
  1074   0013E2  CFDD F075          	movff	postdec2,??_gpio_pin_write+4
  1075   0013E6  C074  FFD9         	movff	??_gpio_pin_write+3,fsr2l
  1076   0013EA  C075  FFDA         	movff	??_gpio_pin_write+4,fsr2h
  1077   0013EE  5073               	movf	(??_gpio_pin_write+2)^0,w,c
  1078   0013F0  16DF               	andwf	indf2,f,c
  1079   0013F2                     l5732:
  1080   0013F2                     l657:
  1081   0013F2  0012               	return		;funcret
  1082   0013F4                     __end_of_gpio_pin_write:
  1083                           	callstack 0
  1084                           
  1085 ;; *************** function _gpio_pin_direction_initialize *****************
  1086 ;; Defined at:
  1087 ;;		line 75 in file "MCAL_LAYER/GPIO/gpio.c"
  1088 ;; Parameters:    Size  Location     Type
  1089 ;;  ptr             1    8[COMRAM] PTR const struct .
  1090 ;;		 -> Interrupt_RBx_Pin_Configure@pin(1), Interrupt_INTx_Pin_Configure@pin(1), seven_segment_activation_pin_initialize
      +@activate_pin(1), relay_initialize@relay(1), 
  1091 ;;		 -> button_initialize@button(1), led_initialize@led(1), motor_initialize@motor_pin2(1), motor_initialize@motor_pin1(
      +1), 
  1092 ;; Auto vars:     Size  Location     Type
  1093 ;;  ret             1    0        unsigned char 
  1094 ;; Return value:  Size  Location     Type
  1095 ;;                  1    wreg      unsigned char 
  1096 ;; Registers used:
  1097 ;;		wreg, fsr2l, fsr2h, status,2, status,0, prodl, prodh
  1098 ;; Tracked objects:
  1099 ;;		On entry : 0/0
  1100 ;;		On exit  : 0/0
  1101 ;;		Unchanged: 0/0
  1102 ;; Data sizes:     COMRAM   BANK0   BANK1   BANK2   BANK3   BANK4   BANK5   BANK6   BANK7   BANK8   BANK9  BANK10  BANK1
      +1  BANK12  BANK13  BANK14  BANK15
  1103 ;;      Params:         1       0       0       0       0       0       0       0       0       0       0       0       
      +0       0       0       0       0
  1104 ;;      Locals:         0       0       0       0       0       0       0       0       0       0       0       0       
      +0       0       0       0       0
  1105 ;;      Temps:          5       0       0       0       0       0       0       0       0       0       0       0       
      +0       0       0       0       0
  1106 ;;      Totals:         6       0       0       0       0       0       0       0       0       0       0       0       
      +0       0       0       0       0
  1107 ;;Total ram usage:        6 bytes
  1108 ;; Hardware stack levels used: 1
  1109 ;; Hardware stack levels required when called: 6
  1110 ;; This function calls:
  1111 ;;		Nothing
  1112 ;; This function is called by:
  1113 ;;		_gpio_pin_initialize
  1114 ;;		_motor_initialize
  1115 ;;		_button_initialize
  1116 ;; This function uses a non-reentrant model
  1117 ;;
  1118                           
  1119                           	psect	text6
  1120   001224                     __ptext6:
  1121                           	callstack 0
  1122   001224                     _gpio_pin_direction_initialize:
  1123                           	callstack 20
  1124   001224                     
  1125                           ;MCAL_LAYER/GPIO/gpio.c: 78:     if((ptr->port_index>=5)||(ptr->pin_index>=8)||(((void*)
      +                          0)==ptr))
  1126   001224  506F               	movf	gpio_pin_direction_initialize@ptr^0,w,c
  1127   001226  6ED9               	movwf	fsr2l,c
  1128   001228  6ADA               	clrf	fsr2h,c
  1129   00122A  38DF               	swapf	223,w,c
  1130   00122C  32E8               	rrcf	wreg,f,c
  1131   00122E  0B07               	andlw	7
  1132   001230  6E70               	movwf	??_gpio_pin_direction_initialize^0,c
  1133   001232  0E05               	movlw	5
  1134   001234  6070               	cpfslt	??_gpio_pin_direction_initialize^0,c
  1135   001236  EF1F  F009         	goto	u5271
  1136   00123A  EF21  F009         	goto	u5270
  1137   00123E                     u5271:
  1138   00123E  EF38  F009         	goto	l5744
  1139   001242                     u5270:
  1140   001242  506F               	movf	gpio_pin_direction_initialize@ptr^0,w,c
  1141   001244  6ED9               	movwf	fsr2l,c
  1142   001246  6ADA               	clrf	fsr2h,c
  1143   001248  30DF               	rrcf	223,w,c
  1144   00124A  32E8               	rrcf	wreg,f,c
  1145   00124C  0B07               	andlw	7
  1146   00124E  6E70               	movwf	??_gpio_pin_direction_initialize^0,c
  1147   001250  0E08               	movlw	8
  1148   001252  6070               	cpfslt	??_gpio_pin_direction_initialize^0,c
  1149   001254  EF2E  F009         	goto	u5281
  1150   001258  EF30  F009         	goto	u5280
  1151   00125C                     u5281:
  1152   00125C  EF38  F009         	goto	l5744
  1153   001260                     u5280:
  1154   001260  506F               	movf	gpio_pin_direction_initialize@ptr^0,w,c
  1155   001262  A4D8               	btfss	status,2,c
  1156   001264  EF36  F009         	goto	u5291
  1157   001268  EF38  F009         	goto	u5290
  1158   00126C                     u5291:
  1159   00126C  EF3A  F009         	goto	l5746
  1160   001270                     u5290:
  1161   001270                     l5744:
  1162                           
  1163                           ;MCAL_LAYER/GPIO/gpio.c: 81:     }
  1164   001270  EF95  F009         	goto	l643
  1165   001274                     l5746:
  1166                           
  1167                           ;MCAL_LAYER/GPIO/gpio.c: 83:     {;MCAL_LAYER/GPIO/gpio.c: 84:         if((ptr->directio
      +                          n)==INPUT){
  1168   001274  506F               	movf	gpio_pin_direction_initialize@ptr^0,w,c
  1169   001276  6ED9               	movwf	fsr2l,c
  1170   001278  6ADA               	clrf	fsr2h,c
  1171   00127A  A2DF               	btfss	indf2,1,c
  1172   00127C  EF42  F009         	goto	u5301
  1173   001280  EF44  F009         	goto	u5300
  1174   001284                     u5301:
  1175   001284  EF6C  F009         	goto	l5750
  1176   001288                     u5300:
  1177   001288                     
  1178                           ;MCAL_LAYER/GPIO/gpio.c: 85:             (*TRIS_REG[ptr->port_index]|=(0X01<<ptr->pin_in
      +                          dex));
  1179   001288  506F               	movf	gpio_pin_direction_initialize@ptr^0,w,c
  1180   00128A  6ED9               	movwf	fsr2l,c
  1181   00128C  6ADA               	clrf	fsr2h,c
  1182   00128E  30DF               	rrcf	223,w,c
  1183   001290  32E8               	rrcf	wreg,f,c
  1184   001292  0B07               	andlw	7
  1185   001294  6E70               	movwf	??_gpio_pin_direction_initialize^0,c
  1186   001296  0E01               	movlw	1
  1187   001298  6E71               	movwf	(??_gpio_pin_direction_initialize+1)^0,c
  1188   00129A  2A70               	incf	??_gpio_pin_direction_initialize^0,f,c
  1189   00129C  EF52  F009         	goto	u5314
  1190   0012A0                     u5315:
  1191   0012A0  90D8               	bcf	status,0,c
  1192   0012A2  3671               	rlcf	(??_gpio_pin_direction_initialize+1)^0,f,c
  1193   0012A4                     u5314:
  1194   0012A4  2E70               	decfsz	??_gpio_pin_direction_initialize^0,f,c
  1195   0012A6  EF50  F009         	goto	u5315
  1196   0012AA  506F               	movf	gpio_pin_direction_initialize@ptr^0,w,c
  1197   0012AC  6ED9               	movwf	fsr2l,c
  1198   0012AE  6ADA               	clrf	fsr2h,c
  1199   0012B0  38DF               	swapf	223,w,c
  1200   0012B2  32E8               	rrcf	wreg,f,c
  1201   0012B4  0B07               	andlw	7
  1202   0012B6  0D02               	mullw	2
  1203   0012B8  50F3               	movf	243,w,c
  1204   0012BA  0F48               	addlw	low _TRIS_REG
  1205   0012BC  6ED9               	movwf	fsr2l,c
  1206   0012BE  6ADA               	clrf	fsr2h,c
  1207   0012C0  CFDE F072          	movff	postinc2,??_gpio_pin_direction_initialize+2
  1208   0012C4  CFDD F073          	movff	postdec2,??_gpio_pin_direction_initialize+3
  1209   0012C8  C072  FFD9         	movff	??_gpio_pin_direction_initialize+2,fsr2l
  1210   0012CC  C073  FFDA         	movff	??_gpio_pin_direction_initialize+3,fsr2h
  1211   0012D0  5071               	movf	(??_gpio_pin_direction_initialize+1)^0,w,c
  1212   0012D2  12DF               	iorwf	indf2,f,c
  1213                           
  1214                           ;MCAL_LAYER/GPIO/gpio.c: 86:         }
  1215   0012D4  EF95  F009         	goto	l5752
  1216   0012D8                     l5750:
  1217                           
  1218                           ;MCAL_LAYER/GPIO/gpio.c: 88:             (*TRIS_REG[ptr->port_index]&=~(0X01<<ptr->pin_i
      +                          ndex));
  1219   0012D8  506F               	movf	gpio_pin_direction_initialize@ptr^0,w,c
  1220   0012DA  6ED9               	movwf	fsr2l,c
  1221   0012DC  6ADA               	clrf	fsr2h,c
  1222   0012DE  30DF               	rrcf	223,w,c
  1223   0012E0  32E8               	rrcf	wreg,f,c
  1224   0012E2  0B07               	andlw	7
  1225   0012E4  6E70               	movwf	??_gpio_pin_direction_initialize^0,c
  1226   0012E6  0E01               	movlw	1
  1227   0012E8  6E71               	movwf	(??_gpio_pin_direction_initialize+1)^0,c
  1228   0012EA  2A70               	incf	??_gpio_pin_direction_initialize^0,f,c
  1229   0012EC  EF7A  F009         	goto	u5324
  1230   0012F0                     u5325:
  1231   0012F0  90D8               	bcf	status,0,c
  1232   0012F2  3671               	rlcf	(??_gpio_pin_direction_initialize+1)^0,f,c
  1233   0012F4                     u5324:
  1234   0012F4  2E70               	decfsz	??_gpio_pin_direction_initialize^0,f,c
  1235   0012F6  EF78  F009         	goto	u5325
  1236   0012FA  5071               	movf	(??_gpio_pin_direction_initialize+1)^0,w,c
  1237   0012FC  0AFF               	xorlw	255
  1238   0012FE  6E72               	movwf	(??_gpio_pin_direction_initialize+2)^0,c
  1239   001300  506F               	movf	gpio_pin_direction_initialize@ptr^0,w,c
  1240   001302  6ED9               	movwf	fsr2l,c
  1241   001304  6ADA               	clrf	fsr2h,c
  1242   001306  38DF               	swapf	223,w,c
  1243   001308  32E8               	rrcf	wreg,f,c
  1244   00130A  0B07               	andlw	7
  1245   00130C  0D02               	mullw	2
  1246   00130E  50F3               	movf	243,w,c
  1247   001310  0F48               	addlw	low _TRIS_REG
  1248   001312  6ED9               	movwf	fsr2l,c
  1249   001314  6ADA               	clrf	fsr2h,c
  1250   001316  CFDE F073          	movff	postinc2,??_gpio_pin_direction_initialize+3
  1251   00131A  CFDD F074          	movff	postdec2,??_gpio_pin_direction_initialize+4
  1252   00131E  C073  FFD9         	movff	??_gpio_pin_direction_initialize+3,fsr2l
  1253   001322  C074  FFDA         	movff	??_gpio_pin_direction_initialize+4,fsr2h
  1254   001326  5072               	movf	(??_gpio_pin_direction_initialize+2)^0,w,c
  1255   001328  16DF               	andwf	indf2,f,c
  1256   00132A                     l5752:
  1257   00132A                     l643:
  1258   00132A  0012               	return		;funcret
  1259   00132C                     __end_of_gpio_pin_direction_initialize:
  1260                           	callstack 0
  1261                           
  1262 ;; *************** function _ISR_LOW *****************
  1263 ;; Defined at:
  1264 ;;		line 91 in file "MCAL_LAYER/Interrupt/Interrupt_ISR.c"
  1265 ;; Parameters:    Size  Location     Type
  1266 ;;		None
  1267 ;; Auto vars:     Size  Location     Type
  1268 ;;		None
  1269 ;; Return value:  Size  Location     Type
  1270 ;;                  1    wreg      void 
  1271 ;; Registers used:
  1272 ;;		wreg, status,2, status,0, cstack
  1273 ;; Tracked objects:
  1274 ;;		On entry : 0/0
  1275 ;;		On exit  : 0/0
  1276 ;;		Unchanged: 0/0
  1277 ;; Data sizes:     COMRAM   BANK0   BANK1   BANK2   BANK3   BANK4   BANK5   BANK6   BANK7   BANK8   BANK9  BANK10  BANK1
      +1  BANK12  BANK13  BANK14  BANK15
  1278 ;;      Params:         0       0       0       0       0       0       0       0       0       0       0       0       
      +0       0       0       0       0
  1279 ;;      Locals:         0       0       0       0       0       0       0       0       0       0       0       0       
      +0       0       0       0       0
  1280 ;;      Temps:          3       0       0       0       0       0       0       0       0       0       0       0       
      +0       0       0       0       0
  1281 ;;      Totals:         3       0       0       0       0       0       0       0       0       0       0       0       
      +0       0       0       0       0
  1282 ;;Total ram usage:        3 bytes
  1283 ;; Hardware stack levels used: 1
  1284 ;; Hardware stack levels required when called: 5
  1285 ;; This function calls:
  1286 ;;		_ADC_INTERRUPT_ISR
  1287 ;;		_INT1_ISR
  1288 ;;		_INT2_ISR
  1289 ;;		_RB4_ISR
  1290 ;;		_RB5_ISR
  1291 ;;		_RB6_ISR
  1292 ;;		_RB7_ISR
  1293 ;;		_TIMER0_INTERRUPT_ISR
  1294 ;;		_TIMER1_INTERRUPT_ISR
  1295 ;;		_TIMER2_INTERRUPT_ISR
  1296 ;;		_TIMER3_INTERRUPT_ISR
  1297 ;; This function is called by:
  1298 ;;		Interrupt level 1
  1299 ;; This function uses a non-reentrant model
  1300 ;;
  1301                           
  1302                           	psect	intcodelo
  1303   000018                     __pintcodelo:
  1304                           	callstack 0
  1305   000018                     _ISR_LOW:
  1306                           	callstack 20
  1307                           
  1308                           ;incstack = 0
  1309   000018  8077               	bsf	int$flags,0,c	;set compiler interrupt flag (level 1)
  1310   00001A  CFD8 F06C          	movff	status,??_ISR_LOW
  1311   00001E  CFE8 F06D          	movff	wreg,??_ISR_LOW+1
  1312   000022  CFE0 F06E          	movff	bsr,??_ISR_LOW+2
  1313   000026                     
  1314                           ;MCAL_LAYER/Interrupt/Interrupt_ISR.c: 93:     if((INTCON3bits.INT1IE==1)&&(INTCON3bits.
      +                          INT1IF==1)&&(INTCON3bits.INT1IP==0))
  1315   000026  A6F0               	btfss	240,3,c	;volatile
  1316   000028  EF18  F000         	goto	i1u476_21
  1317   00002C  EF1A  F000         	goto	i1u476_20
  1318   000030                     i1u476_21:
  1319   000030  EF29  F000         	goto	i1l5416
  1320   000034                     i1u476_20:
  1321   000034  A0F0               	btfss	240,0,c	;volatile
  1322   000036  EF1F  F000         	goto	i1u477_21
  1323   00003A  EF21  F000         	goto	i1u477_20
  1324   00003E                     i1u477_21:
  1325   00003E  EF29  F000         	goto	i1l5416
  1326   000042                     i1u477_20:
  1327   000042  BCF0               	btfsc	240,6,c	;volatile
  1328   000044  EF26  F000         	goto	i1u478_21
  1329   000048  EF28  F000         	goto	i1u478_20
  1330   00004C                     i1u478_21:
  1331   00004C  EF29  F000         	goto	i1l5416
  1332   000050                     i1u478_20:
  1333   000050                     
  1334                           ;MCAL_LAYER/Interrupt/Interrupt_ISR.c: 94:         (INTCON3bits.INT1IF=0);
  1335   000050  90F0               	bcf	240,0,c	;volatile
  1336   000052                     i1l5416:
  1337                           
  1338                           ;MCAL_LAYER/Interrupt/Interrupt_ISR.c: 95:         INT1_ISR();
  1339   000052  EC6E  F00C         	call	_INT1_ISR	;wreg free
  1340   000056                     
  1341                           ;MCAL_LAYER/Interrupt/Interrupt_ISR.c: 96:         (INTCON3bits.INT1IF=0);
  1342   000056  90F0               	bcf	240,0,c	;volatile
  1343   000058                     
  1344                           ;MCAL_LAYER/Interrupt/Interrupt_ISR.c: 97:     if((INTCON3bits.INT2IE==1)&&(INTCON3bits.
      +                          INT2IF==1)&&(INTCON3bits.INT2IP==0))
  1345   000058  A8F0               	btfss	240,4,c	;volatile
  1346   00005A  EF31  F000         	goto	i1u479_21
  1347   00005E  EF33  F000         	goto	i1u479_20
  1348   000062                     i1u479_21:
  1349   000062  EF42  F000         	goto	i1l5428
  1350   000066                     i1u479_20:
  1351   000066  A2F0               	btfss	240,1,c	;volatile
  1352   000068  EF38  F000         	goto	i1u480_21
  1353   00006C  EF3A  F000         	goto	i1u480_20
  1354   000070                     i1u480_21:
  1355   000070  EF42  F000         	goto	i1l5428
  1356   000074                     i1u480_20:
  1357   000074  BEF0               	btfsc	240,7,c	;volatile
  1358   000076  EF3F  F000         	goto	i1u481_21
  1359   00007A  EF41  F000         	goto	i1u481_20
  1360   00007E                     i1u481_21:
  1361   00007E  EF42  F000         	goto	i1l5428
  1362   000082                     i1u481_20:
  1363   000082                     
  1364                           ;MCAL_LAYER/Interrupt/Interrupt_ISR.c: 98:         (INTCON3bits.INT2IF=0);
  1365   000082  92F0               	bcf	240,1,c	;volatile
  1366   000084                     i1l5428:
  1367                           
  1368                           ;MCAL_LAYER/Interrupt/Interrupt_ISR.c: 99:         INT2_ISR();
  1369   000084  EC6D  F00C         	call	_INT2_ISR	;wreg free
  1370   000088                     
  1371                           ;MCAL_LAYER/Interrupt/Interrupt_ISR.c: 100:         (INTCON3bits.INT2IF=0);
  1372   000088  92F0               	bcf	240,1,c	;volatile
  1373   00008A                     
  1374                           ;MCAL_LAYER/Interrupt/Interrupt_ISR.c: 101:     if((INTCONbits.RBIE==1)&&(INTCONbits.RBI
      +                          F==1)&&(IPR1bits.ADIP==0))
  1375   00008A  A6F2               	btfss	242,3,c	;volatile
  1376   00008C  EF4A  F000         	goto	i1u482_21
  1377   000090  EF4C  F000         	goto	i1u482_20
  1378   000094                     i1u482_21:
  1379   000094  EF96  F000         	goto	i1l5460
  1380   000098                     i1u482_20:
  1381   000098  A0F2               	btfss	242,0,c	;volatile
  1382   00009A  EF51  F000         	goto	i1u483_21
  1383   00009E  EF53  F000         	goto	i1u483_20
  1384   0000A2                     i1u483_21:
  1385   0000A2  EF96  F000         	goto	i1l5460
  1386   0000A6                     i1u483_20:
  1387   0000A6  BC9F               	btfsc	159,6,c	;volatile
  1388   0000A8  EF58  F000         	goto	i1u484_21
  1389   0000AC  EF5A  F000         	goto	i1u484_20
  1390   0000B0                     i1u484_21:
  1391   0000B0  EF96  F000         	goto	i1l5460
  1392   0000B4                     i1u484_20:
  1393   0000B4                     
  1394                           ;MCAL_LAYER/Interrupt/Interrupt_ISR.c: 102:     {;MCAL_LAYER/Interrupt/Interrupt_ISR.c: 
      +                          103:         (INTCONbits.RBIF=0);
  1395   0000B4  90F2               	bcf	242,0,c	;volatile
  1396   0000B6                     
  1397                           ;MCAL_LAYER/Interrupt/Interrupt_ISR.c: 104:          if((PORTB^portb_prev)&&0x10)
  1398   0000B6  5081               	movf	129,w,c	;volatile
  1399   0000B8  1832               	xorwf	_portb_prev^0,w,c	;volatile
  1400   0000BA  0900               	iorlw	0
  1401   0000BC  B4D8               	btfsc	status,2,c
  1402   0000BE  EF63  F000         	goto	i1u485_21
  1403   0000C2  EF65  F000         	goto	i1u485_20
  1404   0000C6                     i1u485_21:
  1405   0000C6  EF69  F000         	goto	i1l5444
  1406   0000CA                     i1u485_20:
  1407   0000CA                     
  1408                           ;MCAL_LAYER/Interrupt/Interrupt_ISR.c: 105:          {;MCAL_LAYER/Interrupt/Interrupt_IS
      +                          R.c: 106:         RB4_ISR();
  1409   0000CA  EC28  F00B         	call	_RB4_ISR	;wreg free
  1410                           
  1411                           ;MCAL_LAYER/Interrupt/Interrupt_ISR.c: 107:          }
  1412   0000CE  EF93  F000         	goto	i1l5456
  1413   0000D2                     i1l5444:
  1414   0000D2  5081               	movf	129,w,c	;volatile
  1415   0000D4  1832               	xorwf	_portb_prev^0,w,c	;volatile
  1416   0000D6  0900               	iorlw	0
  1417   0000D8  B4D8               	btfsc	status,2,c
  1418   0000DA  EF71  F000         	goto	i1u486_21
  1419   0000DE  EF73  F000         	goto	i1u486_20
  1420   0000E2                     i1u486_21:
  1421   0000E2  EF77  F000         	goto	i1l5448
  1422   0000E6                     i1u486_20:
  1423   0000E6                     
  1424                           ;MCAL_LAYER/Interrupt/Interrupt_ISR.c: 109:          {;MCAL_LAYER/Interrupt/Interrupt_IS
      +                          R.c: 110:         RB5_ISR();
  1425   0000E6  ECD1  F00A         	call	_RB5_ISR	;wreg free
  1426                           
  1427                           ;MCAL_LAYER/Interrupt/Interrupt_ISR.c: 111:          }
  1428   0000EA  EF93  F000         	goto	i1l5456
  1429   0000EE                     i1l5448:
  1430   0000EE  5081               	movf	129,w,c	;volatile
  1431   0000F0  1832               	xorwf	_portb_prev^0,w,c	;volatile
  1432   0000F2  0900               	iorlw	0
  1433   0000F4  B4D8               	btfsc	status,2,c
  1434   0000F6  EF7F  F000         	goto	i1u487_21
  1435   0000FA  EF81  F000         	goto	i1u487_20
  1436   0000FE                     i1u487_21:
  1437   0000FE  EF85  F000         	goto	i1l5452
  1438   000102                     i1u487_20:
  1439   000102                     
  1440                           ;MCAL_LAYER/Interrupt/Interrupt_ISR.c: 113:          {;MCAL_LAYER/Interrupt/Interrupt_IS
      +                          R.c: 114:         RB6_ISR();
  1441   000102  ECB4  F00A         	call	_RB6_ISR	;wreg free
  1442                           
  1443                           ;MCAL_LAYER/Interrupt/Interrupt_ISR.c: 115:          }
  1444   000106  EF93  F000         	goto	i1l5456
  1445   00010A                     i1l5452:
  1446   00010A  5081               	movf	129,w,c	;volatile
  1447   00010C  1832               	xorwf	_portb_prev^0,w,c	;volatile
  1448   00010E  0900               	iorlw	0
  1449   000110  B4D8               	btfsc	status,2,c
  1450   000112  EF8D  F000         	goto	i1u488_21
  1451   000116  EF8F  F000         	goto	i1u488_20
  1452   00011A                     i1u488_21:
  1453   00011A  EF93  F000         	goto	i1l756
  1454   00011E                     i1u488_20:
  1455   00011E                     
  1456                           ;MCAL_LAYER/Interrupt/Interrupt_ISR.c: 117:          {;MCAL_LAYER/Interrupt/Interrupt_IS
      +                          R.c: 118:         RB7_ISR();
  1457   00011E  EC5A  F00B         	call	_RB7_ISR	;wreg free
  1458   000122  EF93  F000         	goto	i1l5456
  1459   000126                     i1l756:
  1460   000126                     i1l5456:
  1461                           
  1462                           ;MCAL_LAYER/Interrupt/Interrupt_ISR.c: 121:         (INTCONbits.RBIF=0);
  1463   000126  90F2               	bcf	242,0,c	;volatile
  1464   000128                     
  1465                           ;MCAL_LAYER/Interrupt/Interrupt_ISR.c: 122:         portb_prev=PORTB;
  1466   000128  CF81 F032          	movff	3969,_portb_prev	;volatile
  1467   00012C                     i1l5460:
  1468                           
  1469                           ;MCAL_LAYER/Interrupt/Interrupt_ISR.c: 125:     if((PIE1bits.ADIE==1)&&(PIR1bits.ADIF ==
      +                          1))
  1470   00012C  AC9D               	btfss	157,6,c	;volatile
  1471   00012E  EF9B  F000         	goto	i1u489_21
  1472   000132  EF9D  F000         	goto	i1u489_20
  1473   000136                     i1u489_21:
  1474   000136  EFA8  F000         	goto	i1l5470
  1475   00013A                     i1u489_20:
  1476   00013A  AC9E               	btfss	158,6,c	;volatile
  1477   00013C  EFA2  F000         	goto	i1u490_21
  1478   000140  EFA4  F000         	goto	i1u490_20
  1479   000144                     i1u490_21:
  1480   000144  EFA8  F000         	goto	i1l5470
  1481   000148                     i1u490_20:
  1482   000148                     
  1483                           ;MCAL_LAYER/Interrupt/Interrupt_ISR.c: 126:     {;MCAL_LAYER/Interrupt/Interrupt_ISR.c: 
      +                          127:         (PIR1bits.ADIF=0);
  1484   000148  9C9E               	bcf	158,6,c	;volatile
  1485   00014A                     
  1486                           ;MCAL_LAYER/Interrupt/Interrupt_ISR.c: 128:         ADC_INTERRUPT_ISR();
  1487   00014A  EC6F  F00C         	call	_ADC_INTERRUPT_ISR	;wreg free
  1488   00014E                     
  1489                           ;MCAL_LAYER/Interrupt/Interrupt_ISR.c: 129:         (PIR1bits.ADIF=0);
  1490   00014E  9C9E               	bcf	158,6,c	;volatile
  1491   000150                     i1l5470:
  1492                           
  1493                           ;MCAL_LAYER/Interrupt/Interrupt_ISR.c: 134:     if((INTCONbits.TMR0IE==1)&&(INTCONbits.T
      +                          MR0IF ==1)&&(INTCON2bits.TMR0IP==0))
  1494   000150  AAF2               	btfss	242,5,c	;volatile
  1495   000152  EFAD  F000         	goto	i1u491_21
  1496   000156  EFAF  F000         	goto	i1u491_20
  1497   00015A                     i1u491_21:
  1498   00015A  EFC1  F000         	goto	i1l5482
  1499   00015E                     i1u491_20:
  1500   00015E  A4F2               	btfss	242,2,c	;volatile
  1501   000160  EFB4  F000         	goto	i1u492_21
  1502   000164  EFB6  F000         	goto	i1u492_20
  1503   000168                     i1u492_21:
  1504   000168  EFC1  F000         	goto	i1l5482
  1505   00016C                     i1u492_20:
  1506   00016C  B4F1               	btfsc	241,2,c	;volatile
  1507   00016E  EFBB  F000         	goto	i1u493_21
  1508   000172  EFBD  F000         	goto	i1u493_20
  1509   000176                     i1u493_21:
  1510   000176  EFC1  F000         	goto	i1l5482
  1511   00017A                     i1u493_20:
  1512   00017A                     
  1513                           ;MCAL_LAYER/Interrupt/Interrupt_ISR.c: 135:     {;MCAL_LAYER/Interrupt/Interrupt_ISR.c: 
      +                          136:         (INTCONbits.TMR0IF=0);
  1514   00017A  94F2               	bcf	242,2,c	;volatile
  1515   00017C                     
  1516                           ;MCAL_LAYER/Interrupt/Interrupt_ISR.c: 137:         TIMER0_INTERRUPT_ISR();
  1517   00017C  ECAA  F00B         	call	_TIMER0_INTERRUPT_ISR	;wreg free
  1518   000180                     
  1519                           ;MCAL_LAYER/Interrupt/Interrupt_ISR.c: 138:         (INTCONbits.TMR0IF=0);
  1520   000180  94F2               	bcf	242,2,c	;volatile
  1521   000182                     i1l5482:
  1522                           
  1523                           ;MCAL_LAYER/Interrupt/Interrupt_ISR.c: 142:     if((PIE1bits.TMR1IE==1)&&(PIR1bits.TMR1I
      +                          F ==1)&&(IPR1bits.TMR1IP==0))
  1524   000182  A09D               	btfss	157,0,c	;volatile
  1525   000184  EFC6  F000         	goto	i1u494_21
  1526   000188  EFC8  F000         	goto	i1u494_20
  1527   00018C                     i1u494_21:
  1528   00018C  EFDA  F000         	goto	i1l5494
  1529   000190                     i1u494_20:
  1530   000190  A09E               	btfss	158,0,c	;volatile
  1531   000192  EFCD  F000         	goto	i1u495_21
  1532   000196  EFCF  F000         	goto	i1u495_20
  1533   00019A                     i1u495_21:
  1534   00019A  EFDA  F000         	goto	i1l5494
  1535   00019E                     i1u495_20:
  1536   00019E  B09F               	btfsc	159,0,c	;volatile
  1537   0001A0  EFD4  F000         	goto	i1u496_21
  1538   0001A4  EFD6  F000         	goto	i1u496_20
  1539   0001A8                     i1u496_21:
  1540   0001A8  EFDA  F000         	goto	i1l5494
  1541   0001AC                     i1u496_20:
  1542   0001AC                     
  1543                           ;MCAL_LAYER/Interrupt/Interrupt_ISR.c: 143:     {;MCAL_LAYER/Interrupt/Interrupt_ISR.c: 
      +                          144:         (PIR1bits.TMR1IF=0);
  1544   0001AC  909E               	bcf	158,0,c	;volatile
  1545   0001AE                     
  1546                           ;MCAL_LAYER/Interrupt/Interrupt_ISR.c: 145:         TIMER1_INTERRUPT_ISR();
  1547   0001AE  EC9A  F00B         	call	_TIMER1_INTERRUPT_ISR	;wreg free
  1548   0001B2                     
  1549                           ;MCAL_LAYER/Interrupt/Interrupt_ISR.c: 146:         (PIR1bits.TMR1IF=0);
  1550   0001B2  909E               	bcf	158,0,c	;volatile
  1551   0001B4                     i1l5494:
  1552                           
  1553                           ;MCAL_LAYER/Interrupt/Interrupt_ISR.c: 150:     if((PIE1bits.TMR2IE==1)&&(PIR1bits.TMR2I
      +                          F ==1)&&(IPR1bits.TMR2IP==0))
  1554   0001B4  A29D               	btfss	157,1,c	;volatile
  1555   0001B6  EFDF  F000         	goto	i1u497_21
  1556   0001BA  EFE1  F000         	goto	i1u497_20
  1557   0001BE                     i1u497_21:
  1558   0001BE  EFF3  F000         	goto	i1l5506
  1559   0001C2                     i1u497_20:
  1560   0001C2  A29E               	btfss	158,1,c	;volatile
  1561   0001C4  EFE6  F000         	goto	i1u498_21
  1562   0001C8  EFE8  F000         	goto	i1u498_20
  1563   0001CC                     i1u498_21:
  1564   0001CC  EFF3  F000         	goto	i1l5506
  1565   0001D0                     i1u498_20:
  1566   0001D0  B29F               	btfsc	159,1,c	;volatile
  1567   0001D2  EFED  F000         	goto	i1u499_21
  1568   0001D6  EFEF  F000         	goto	i1u499_20
  1569   0001DA                     i1u499_21:
  1570   0001DA  EFF3  F000         	goto	i1l5506
  1571   0001DE                     i1u499_20:
  1572   0001DE                     
  1573                           ;MCAL_LAYER/Interrupt/Interrupt_ISR.c: 151:     {;MCAL_LAYER/Interrupt/Interrupt_ISR.c: 
      +                          152:         (PIR1bits.TMR2IF=0);
  1574   0001DE  929E               	bcf	158,1,c	;volatile
  1575   0001E0                     
  1576                           ;MCAL_LAYER/Interrupt/Interrupt_ISR.c: 153:         TIMER2_INTERRUPT_ISR();
  1577   0001E0  ECFA  F00B         	call	_TIMER2_INTERRUPT_ISR	;wreg free
  1578   0001E4                     
  1579                           ;MCAL_LAYER/Interrupt/Interrupt_ISR.c: 154:         (PIR1bits.TMR2IF=0);
  1580   0001E4  929E               	bcf	158,1,c	;volatile
  1581   0001E6                     i1l5506:
  1582                           
  1583                           ;MCAL_LAYER/Interrupt/Interrupt_ISR.c: 159:     if((PIE2bits.TMR3IE==1)&&(PIR2bits.TMR3I
      +                          F ==1)&&(IPR2bits.TMR3IP==0))
  1584   0001E6  A2A0               	btfss	160,1,c	;volatile
  1585   0001E8  EFF8  F000         	goto	i1u500_21
  1586   0001EC  EFFA  F000         	goto	i1u500_20
  1587   0001F0                     i1u500_21:
  1588   0001F0  EF0C  F001         	goto	i1l765
  1589   0001F4                     i1u500_20:
  1590   0001F4  A2A1               	btfss	161,1,c	;volatile
  1591   0001F6  EFFF  F000         	goto	i1u501_21
  1592   0001FA  EF01  F001         	goto	i1u501_20
  1593   0001FE                     i1u501_21:
  1594   0001FE  EF0C  F001         	goto	i1l765
  1595   000202                     i1u501_20:
  1596   000202  B2A2               	btfsc	162,1,c	;volatile
  1597   000204  EF06  F001         	goto	i1u502_21
  1598   000208  EF08  F001         	goto	i1u502_20
  1599   00020C                     i1u502_21:
  1600   00020C  EF0C  F001         	goto	i1l765
  1601   000210                     i1u502_20:
  1602   000210                     
  1603                           ;MCAL_LAYER/Interrupt/Interrupt_ISR.c: 160:     {;MCAL_LAYER/Interrupt/Interrupt_ISR.c: 
      +                          161:         (PIR2bits.TMR3IF=0);
  1604   000210  92A1               	bcf	161,1,c	;volatile
  1605   000212                     
  1606                           ;MCAL_LAYER/Interrupt/Interrupt_ISR.c: 162:         TIMER3_INTERRUPT_ISR();
  1607   000212  EC8A  F00B         	call	_TIMER3_INTERRUPT_ISR	;wreg free
  1608   000216                     
  1609                           ;MCAL_LAYER/Interrupt/Interrupt_ISR.c: 163:         (PIR2bits.TMR3IF=0);
  1610   000216  92A1               	bcf	161,1,c	;volatile
  1611   000218                     i1l765:
  1612   000218  C06E  FFE0         	movff	??_ISR_LOW+2,bsr
  1613   00021C  C06D  FFE8         	movff	??_ISR_LOW+1,wreg
  1614   000220  C06C  FFD8         	movff	??_ISR_LOW,status
  1615   000224  9077               	bcf	int$flags,0,c	;clear compiler interrupt flag (level 1)
  1616   000226  0010               	retfie	
  1617   000228                     __end_of_ISR_LOW:
  1618                           	callstack 0
  1619                           
  1620 ;; *************** function _TIMER3_INTERRUPT_ISR *****************
  1621 ;; Defined at:
  1622 ;;		line 118 in file "MCAL_LAYER/Timer3/timer3.c"
  1623 ;; Parameters:    Size  Location     Type
  1624 ;;		None
  1625 ;; Auto vars:     Size  Location     Type
  1626 ;;		None
  1627 ;; Return value:  Size  Location     Type
  1628 ;;                  1    wreg      void 
  1629 ;; Registers used:
  1630 ;;		wreg, status,2, status,0, cstack
  1631 ;; Tracked objects:
  1632 ;;		On entry : 0/0
  1633 ;;		On exit  : 0/0
  1634 ;;		Unchanged: 0/0
  1635 ;; Data sizes:     COMRAM   BANK0   BANK1   BANK2   BANK3   BANK4   BANK5   BANK6   BANK7   BANK8   BANK9  BANK10  BANK1
      +1  BANK12  BANK13  BANK14  BANK15
  1636 ;;      Params:         0       0       0       0       0       0       0       0       0       0       0       0       
      +0       0       0       0       0
  1637 ;;      Locals:         0       0       0       0       0       0       0       0       0       0       0       0       
      +0       0       0       0       0
  1638 ;;      Temps:          0       0       0       0       0       0       0       0       0       0       0       0       
      +0       0       0       0       0
  1639 ;;      Totals:         0       0       0       0       0       0       0       0       0       0       0       0       
      +0       0       0       0       0
  1640 ;;Total ram usage:        0 bytes
  1641 ;; Hardware stack levels used: 1
  1642 ;; Hardware stack levels required when called: 4
  1643 ;; This function calls:
  1644 ;;		_TIMER3_WRITE
  1645 ;; This function is called by:
  1646 ;;		_ISR_LOW
  1647 ;; This function uses a non-reentrant model
  1648 ;;
  1649                           
  1650                           	psect	text8
  1651   001714                     __ptext8:
  1652                           	callstack 0
  1653   001714                     _TIMER3_INTERRUPT_ISR:
  1654                           	callstack 20
  1655   001714                     
  1656                           ;MCAL_LAYER/Timer3/timer3.c: 119:     if(TIMER3_InterruptHandler)
  1657   001714  500D               	movf	_TIMER3_InterruptHandler^0,w,c
  1658   001716  100E               	iorwf	(_TIMER3_InterruptHandler+1)^0,w,c
  1659   001718  B4D8               	btfsc	status,2,c
  1660   00171A  EF91  F00B         	goto	i1u341_21
  1661   00171E  EF93  F00B         	goto	i1u341_20
  1662   001722                     i1u341_21:
  1663   001722  EF99  F00B         	goto	i1l1214
  1664   001726                     i1u341_20:
  1665   001726                     
  1666                           ;MCAL_LAYER/Timer3/timer3.c: 122:         TIMER3_InterruptHandler();
  1667   001726  C00B  F06A         	movff	_TIMER3_preload_value_default,TIMER3_WRITE@data
  1668   00172A  C00C  F06B         	movff	_TIMER3_preload_value_default+1,TIMER3_WRITE@data+1
  1669   00172E  EC14  F00C         	call	_TIMER3_WRITE	;wreg free
  1670   001732                     i1l1214:
  1671   001732  0012               	return		;funcret
  1672   001734                     __end_of_TIMER3_INTERRUPT_ISR:
  1673                           	callstack 0
  1674                           
  1675 ;; *************** function _TIMER3_WRITE *****************
  1676 ;; Defined at:
  1677 ;;		line 90 in file "MCAL_LAYER/Timer3/timer3.c"
  1678 ;; Parameters:    Size  Location     Type
  1679 ;;  data            2    3[COMRAM] unsigned short 
  1680 ;; Auto vars:     Size  Location     Type
  1681 ;;  ret             1    0        unsigned char 
  1682 ;; Return value:  Size  Location     Type
  1683 ;;                  1    wreg      unsigned char 
  1684 ;; Registers used:
  1685 ;;		wreg, status,2
  1686 ;; Tracked objects:
  1687 ;;		On entry : 0/0
  1688 ;;		On exit  : 0/0
  1689 ;;		Unchanged: 0/0
  1690 ;; Data sizes:     COMRAM   BANK0   BANK1   BANK2   BANK3   BANK4   BANK5   BANK6   BANK7   BANK8   BANK9  BANK10  BANK1
      +1  BANK12  BANK13  BANK14  BANK15
  1691 ;;      Params:         2       0       0       0       0       0       0       0       0       0       0       0       
      +0       0       0       0       0
  1692 ;;      Locals:         0       0       0       0       0       0       0       0       0       0       0       0       
      +0       0       0       0       0
  1693 ;;      Temps:          0       0       0       0       0       0       0       0       0       0       0       0       
      +0       0       0       0       0
  1694 ;;      Totals:         2       0       0       0       0       0       0       0       0       0       0       0       
      +0       0       0       0       0
  1695 ;;Total ram usage:        2 bytes
  1696 ;; Hardware stack levels used: 1
  1697 ;; Hardware stack levels required when called: 3
  1698 ;; This function calls:
  1699 ;;		Nothing
  1700 ;; This function is called by:
  1701 ;;		_TIMER3_INTERRUPT_ISR
  1702 ;;		_TIMER3_Init
  1703 ;; This function uses a non-reentrant model
  1704 ;;
  1705                           
  1706                           	psect	text9
  1707   001828                     __ptext9:
  1708                           	callstack 0
  1709   001828                     _TIMER3_WRITE:
  1710                           	callstack 20
  1711   001828                     
  1712                           ;MCAL_LAYER/Timer3/timer3.c: 96:     {;MCAL_LAYER/Timer3/timer3.c: 97:        (TMR3H=(ui
      +                          nt8)(data>>8));
  1713   001828  506B               	movf	(TIMER3_WRITE@data+1)^0,w,c
  1714   00182A  6EB3               	movwf	179,c	;volatile
  1715   00182C                     
  1716                           ;MCAL_LAYER/Timer3/timer3.c: 98:        (TMR3L=(uint8)data);
  1717   00182C  C06A  FFB2         	movff	TIMER3_WRITE@data,4018	;volatile
  1718   001830                     
  1719                           ;MCAL_LAYER/Timer3/timer3.c: 99:        TIMER3_preload_value_default=data;
  1720   001830  C06A  F00B         	movff	TIMER3_WRITE@data,_TIMER3_preload_value_default
  1721   001834  C06B  F00C         	movff	TIMER3_WRITE@data+1,_TIMER3_preload_value_default+1
  1722   001838  0012               	return		;funcret
  1723   00183A                     __end_of_TIMER3_WRITE:
  1724                           	callstack 0
  1725                           
  1726 ;; *************** function _TIMER2_INTERRUPT_ISR *****************
  1727 ;; Defined at:
  1728 ;;		line 95 in file "MCAL_LAYER/Timer2/timer2.c"
  1729 ;; Parameters:    Size  Location     Type
  1730 ;;		None
  1731 ;; Auto vars:     Size  Location     Type
  1732 ;;		None
  1733 ;; Return value:  Size  Location     Type
  1734 ;;                  1    wreg      void 
  1735 ;; Registers used:
  1736 ;;		wreg, status,2, status,0, cstack
  1737 ;; Tracked objects:
  1738 ;;		On entry : 0/0
  1739 ;;		On exit  : 0/0
  1740 ;;		Unchanged: 0/0
  1741 ;; Data sizes:     COMRAM   BANK0   BANK1   BANK2   BANK3   BANK4   BANK5   BANK6   BANK7   BANK8   BANK9  BANK10  BANK1
      +1  BANK12  BANK13  BANK14  BANK15
  1742 ;;      Params:         0       0       0       0       0       0       0       0       0       0       0       0       
      +0       0       0       0       0
  1743 ;;      Locals:         0       0       0       0       0       0       0       0       0       0       0       0       
      +0       0       0       0       0
  1744 ;;      Temps:          0       0       0       0       0       0       0       0       0       0       0       0       
      +0       0       0       0       0
  1745 ;;      Totals:         0       0       0       0       0       0       0       0       0       0       0       0       
      +0       0       0       0       0
  1746 ;;Total ram usage:        0 bytes
  1747 ;; Hardware stack levels used: 1
  1748 ;; Hardware stack levels required when called: 4
  1749 ;; This function calls:
  1750 ;;		_TIMER2_WRITE
  1751 ;; This function is called by:
  1752 ;;		_ISR_LOW
  1753 ;; This function uses a non-reentrant model
  1754 ;;
  1755                           
  1756                           	psect	text10
  1757   0017F4                     __ptext10:
  1758                           	callstack 0
  1759   0017F4                     _TIMER2_INTERRUPT_ISR:
  1760                           	callstack 20
  1761   0017F4                     
  1762                           ;MCAL_LAYER/Timer2/timer2.c: 96:     if(TIMER2_InterruptHandler)
  1763   0017F4  500F               	movf	_TIMER2_InterruptHandler^0,w,c
  1764   0017F6  1010               	iorwf	(_TIMER2_InterruptHandler+1)^0,w,c
  1765   0017F8  B4D8               	btfsc	status,2,c
  1766   0017FA  EF01  F00C         	goto	i1u49_21
  1767   0017FE  EF03  F00C         	goto	i1u49_20
  1768   001802                     i1u49_21:
  1769   001802  EF06  F00C         	goto	i1l1154
  1770   001806                     i1u49_20:
  1771   001806                     
  1772                           ;MCAL_LAYER/Timer2/timer2.c: 99:         TIMER2_InterruptHandler();
  1773   001806  5031               	movf	_TIMER2_preload_value_default^0,w,c
  1774   001808  EC5E  F00C         	call	_TIMER2_WRITE
  1775   00180C                     i1l1154:
  1776   00180C  0012               	return		;funcret
  1777   00180E                     __end_of_TIMER2_INTERRUPT_ISR:
  1778                           	callstack 0
  1779                           
  1780 ;; *************** function _TIMER2_WRITE *****************
  1781 ;; Defined at:
  1782 ;;		line 70 in file "MCAL_LAYER/Timer2/timer2.c"
  1783 ;; Parameters:    Size  Location     Type
  1784 ;;  data            1    wreg     unsigned char 
  1785 ;; Auto vars:     Size  Location     Type
  1786 ;;  data            1    3[COMRAM] unsigned char 
  1787 ;;  ret             1    0        unsigned char 
  1788 ;; Return value:  Size  Location     Type
  1789 ;;                  1    wreg      unsigned char 
  1790 ;; Registers used:
  1791 ;;		wreg, status,2
  1792 ;; Tracked objects:
  1793 ;;		On entry : 0/0
  1794 ;;		On exit  : 0/0
  1795 ;;		Unchanged: 0/0
  1796 ;; Data sizes:     COMRAM   BANK0   BANK1   BANK2   BANK3   BANK4   BANK5   BANK6   BANK7   BANK8   BANK9  BANK10  BANK1
      +1  BANK12  BANK13  BANK14  BANK15
  1797 ;;      Params:         0       0       0       0       0       0       0       0       0       0       0       0       
      +0       0       0       0       0
  1798 ;;      Locals:         1       0       0       0       0       0       0       0       0       0       0       0       
      +0       0       0       0       0
  1799 ;;      Temps:          0       0       0       0       0       0       0       0       0       0       0       0       
      +0       0       0       0       0
  1800 ;;      Totals:         1       0       0       0       0       0       0       0       0       0       0       0       
      +0       0       0       0       0
  1801 ;;Total ram usage:        1 bytes
  1802 ;; Hardware stack levels used: 1
  1803 ;; Hardware stack levels required when called: 3
  1804 ;; This function calls:
  1805 ;;		Nothing
  1806 ;; This function is called by:
  1807 ;;		_TIMER2_INTERRUPT_ISR
  1808 ;;		_TIMER2_Init
  1809 ;; This function uses a non-reentrant model
  1810 ;;
  1811                           
  1812                           	psect	text11
  1813   0018BC                     __ptext11:
  1814                           	callstack 0
  1815   0018BC                     _TIMER2_WRITE:
  1816                           	callstack 20
  1817                           
  1818                           ;incstack = 0
  1819                           ;TIMER2_WRITE@data stored from wreg
  1820   0018BC  6E6A               	movwf	TIMER2_WRITE@data^0,c
  1821   0018BE                     
  1822                           ;MCAL_LAYER/Timer2/timer2.c: 76:     {;MCAL_LAYER/Timer2/timer2.c: 77:        (TMR2=data
      +                          );
  1823   0018BE  C06A  FFCC         	movff	TIMER2_WRITE@data,4044	;volatile
  1824                           
  1825                           ;MCAL_LAYER/Timer2/timer2.c: 78:        TIMER2_preload_value_default=data;
  1826   0018C2  C06A  F031         	movff	TIMER2_WRITE@data,_TIMER2_preload_value_default
  1827   0018C6  0012               	return		;funcret
  1828   0018C8                     __end_of_TIMER2_WRITE:
  1829                           	callstack 0
  1830                           
  1831 ;; *************** function _TIMER1_INTERRUPT_ISR *****************
  1832 ;; Defined at:
  1833 ;;		line 119 in file "MCAL_LAYER/Timer1/timer1.c"
  1834 ;; Parameters:    Size  Location     Type
  1835 ;;		None
  1836 ;; Auto vars:     Size  Location     Type
  1837 ;;		None
  1838 ;; Return value:  Size  Location     Type
  1839 ;;                  1    wreg      void 
  1840 ;; Registers used:
  1841 ;;		wreg, status,2, status,0, cstack
  1842 ;; Tracked objects:
  1843 ;;		On entry : 0/0
  1844 ;;		On exit  : 0/0
  1845 ;;		Unchanged: 0/0
  1846 ;; Data sizes:     COMRAM   BANK0   BANK1   BANK2   BANK3   BANK4   BANK5   BANK6   BANK7   BANK8   BANK9  BANK10  BANK1
      +1  BANK12  BANK13  BANK14  BANK15
  1847 ;;      Params:         0       0       0       0       0       0       0       0       0       0       0       0       
      +0       0       0       0       0
  1848 ;;      Locals:         0       0       0       0       0       0       0       0       0       0       0       0       
      +0       0       0       0       0
  1849 ;;      Temps:          0       0       0       0       0       0       0       0       0       0       0       0       
      +0       0       0       0       0
  1850 ;;      Totals:         0       0       0       0       0       0       0       0       0       0       0       0       
      +0       0       0       0       0
  1851 ;;Total ram usage:        0 bytes
  1852 ;; Hardware stack levels used: 1
  1853 ;; Hardware stack levels required when called: 4
  1854 ;; This function calls:
  1855 ;;		_TIMER1_WRITE
  1856 ;; This function is called by:
  1857 ;;		_ISR_LOW
  1858 ;; This function uses a non-reentrant model
  1859 ;;
  1860                           
  1861                           	psect	text12
  1862   001734                     __ptext12:
  1863                           	callstack 0
  1864   001734                     _TIMER1_INTERRUPT_ISR:
  1865                           	callstack 20
  1866   001734                     
  1867                           ;MCAL_LAYER/Timer1/timer1.c: 120:     if(TIMER1_InterruptHandler)
  1868   001734  5013               	movf	_TIMER1_InterruptHandler^0,w,c
  1869   001736  1014               	iorwf	(_TIMER1_InterruptHandler+1)^0,w,c
  1870   001738  B4D8               	btfsc	status,2,c
  1871   00173A  EFA1  F00B         	goto	i1u340_21
  1872   00173E  EFA3  F00B         	goto	i1u340_20
  1873   001742                     i1u340_21:
  1874   001742  EFA9  F00B         	goto	i1l1106
  1875   001746                     i1u340_20:
  1876   001746                     
  1877                           ;MCAL_LAYER/Timer1/timer1.c: 123:         TIMER1_InterruptHandler();
  1878   001746  C011  F06A         	movff	_TIMER1_preload_value_default,TIMER1_WRITE@data
  1879   00174A  C012  F06B         	movff	_TIMER1_preload_value_default+1,TIMER1_WRITE@data+1
  1880   00174E  EC1D  F00C         	call	_TIMER1_WRITE	;wreg free
  1881   001752                     i1l1106:
  1882   001752  0012               	return		;funcret
  1883   001754                     __end_of_TIMER1_INTERRUPT_ISR:
  1884                           	callstack 0
  1885                           
  1886 ;; *************** function _TIMER1_WRITE *****************
  1887 ;; Defined at:
  1888 ;;		line 91 in file "MCAL_LAYER/Timer1/timer1.c"
  1889 ;; Parameters:    Size  Location     Type
  1890 ;;  data            2    3[COMRAM] unsigned short 
  1891 ;; Auto vars:     Size  Location     Type
  1892 ;;  ret             1    0        unsigned char 
  1893 ;; Return value:  Size  Location     Type
  1894 ;;                  1    wreg      unsigned char 
  1895 ;; Registers used:
  1896 ;;		wreg, status,2
  1897 ;; Tracked objects:
  1898 ;;		On entry : 0/0
  1899 ;;		On exit  : 0/0
  1900 ;;		Unchanged: 0/0
  1901 ;; Data sizes:     COMRAM   BANK0   BANK1   BANK2   BANK3   BANK4   BANK5   BANK6   BANK7   BANK8   BANK9  BANK10  BANK1
      +1  BANK12  BANK13  BANK14  BANK15
  1902 ;;      Params:         2       0       0       0       0       0       0       0       0       0       0       0       
      +0       0       0       0       0
  1903 ;;      Locals:         0       0       0       0       0       0       0       0       0       0       0       0       
      +0       0       0       0       0
  1904 ;;      Temps:          0       0       0       0       0       0       0       0       0       0       0       0       
      +0       0       0       0       0
  1905 ;;      Totals:         2       0       0       0       0       0       0       0       0       0       0       0       
      +0       0       0       0       0
  1906 ;;Total ram usage:        2 bytes
  1907 ;; Hardware stack levels used: 1
  1908 ;; Hardware stack levels required when called: 3
  1909 ;; This function calls:
  1910 ;;		Nothing
  1911 ;; This function is called by:
  1912 ;;		_TIMER1_INTERRUPT_ISR
  1913 ;;		_TIMER1_Init
  1914 ;; This function uses a non-reentrant model
  1915 ;;
  1916                           
  1917                           	psect	text13
  1918   00183A                     __ptext13:
  1919                           	callstack 0
  1920   00183A                     _TIMER1_WRITE:
  1921                           	callstack 20
  1922   00183A                     
  1923                           ;MCAL_LAYER/Timer1/timer1.c: 97:     {;MCAL_LAYER/Timer1/timer1.c: 98:        (TMR1H=(ui
      +                          nt8)(data>>8));
  1924   00183A  506B               	movf	(TIMER1_WRITE@data+1)^0,w,c
  1925   00183C  6ECF               	movwf	207,c	;volatile
  1926   00183E                     
  1927                           ;MCAL_LAYER/Timer1/timer1.c: 99:        (TMR1L=(uint8)data);
  1928   00183E  C06A  FFCE         	movff	TIMER1_WRITE@data,4046	;volatile
  1929   001842                     
  1930                           ;MCAL_LAYER/Timer1/timer1.c: 100:        TIMER1_preload_value_default=data;
  1931   001842  C06A  F011         	movff	TIMER1_WRITE@data,_TIMER1_preload_value_default
  1932   001846  C06B  F012         	movff	TIMER1_WRITE@data+1,_TIMER1_preload_value_default+1
  1933   00184A  0012               	return		;funcret
  1934   00184C                     __end_of_TIMER1_WRITE:
  1935                           	callstack 0
  1936                           
  1937 ;; *************** function _TIMER0_INTERRUPT_ISR *****************
  1938 ;; Defined at:
  1939 ;;		line 124 in file "MCAL_LAYER/Timer0/time0.c"
  1940 ;; Parameters:    Size  Location     Type
  1941 ;;		None
  1942 ;; Auto vars:     Size  Location     Type
  1943 ;;		None
  1944 ;; Return value:  Size  Location     Type
  1945 ;;                  1    wreg      void 
  1946 ;; Registers used:
  1947 ;;		wreg, status,2, status,0, cstack
  1948 ;; Tracked objects:
  1949 ;;		On entry : 0/0
  1950 ;;		On exit  : 0/0
  1951 ;;		Unchanged: 0/0
  1952 ;; Data sizes:     COMRAM   BANK0   BANK1   BANK2   BANK3   BANK4   BANK5   BANK6   BANK7   BANK8   BANK9  BANK10  BANK1
      +1  BANK12  BANK13  BANK14  BANK15
  1953 ;;      Params:         0       0       0       0       0       0       0       0       0       0       0       0       
      +0       0       0       0       0
  1954 ;;      Locals:         0       0       0       0       0       0       0       0       0       0       0       0       
      +0       0       0       0       0
  1955 ;;      Temps:          0       0       0       0       0       0       0       0       0       0       0       0       
      +0       0       0       0       0
  1956 ;;      Totals:         0       0       0       0       0       0       0       0       0       0       0       0       
      +0       0       0       0       0
  1957 ;;Total ram usage:        0 bytes
  1958 ;; Hardware stack levels used: 1
  1959 ;; Hardware stack levels required when called: 4
  1960 ;; This function calls:
  1961 ;;		_TIMER0_WRITE
  1962 ;; This function is called by:
  1963 ;;		_ISR_LOW
  1964 ;; This function uses a non-reentrant model
  1965 ;;
  1966                           
  1967                           	psect	text14
  1968   001754                     __ptext14:
  1969                           	callstack 0
  1970   001754                     _TIMER0_INTERRUPT_ISR:
  1971                           	callstack 20
  1972   001754                     
  1973                           ;MCAL_LAYER/Timer0/time0.c: 125:     if(TIMER0_InterruptHandler)
  1974   001754  5017               	movf	_TIMER0_InterruptHandler^0,w,c
  1975   001756  1018               	iorwf	(_TIMER0_InterruptHandler+1)^0,w,c
  1976   001758  B4D8               	btfsc	status,2,c
  1977   00175A  EFB1  F00B         	goto	i1u339_21
  1978   00175E  EFB3  F00B         	goto	i1u339_20
  1979   001762                     i1u339_21:
  1980   001762  EFB9  F00B         	goto	i1l1048
  1981   001766                     i1u339_20:
  1982   001766                     
  1983                           ;MCAL_LAYER/Timer0/time0.c: 128:         TIMER0_InterruptHandler();
  1984   001766  C015  F06A         	movff	_TIMER0_preload_value_default,TIMER0_WRITE@data
  1985   00176A  C016  F06B         	movff	_TIMER0_preload_value_default+1,TIMER0_WRITE@data+1
  1986   00176E  EC26  F00C         	call	_TIMER0_WRITE	;wreg free
  1987   001772                     i1l1048:
  1988   001772  0012               	return		;funcret
  1989   001774                     __end_of_TIMER0_INTERRUPT_ISR:
  1990                           	callstack 0
  1991                           
  1992 ;; *************** function _TIMER0_WRITE *****************
  1993 ;; Defined at:
  1994 ;;		line 96 in file "MCAL_LAYER/Timer0/time0.c"
  1995 ;; Parameters:    Size  Location     Type
  1996 ;;  data            2    3[COMRAM] unsigned short 
  1997 ;; Auto vars:     Size  Location     Type
  1998 ;;  ret             1    0        unsigned char 
  1999 ;; Return value:  Size  Location     Type
  2000 ;;                  1    wreg      unsigned char 
  2001 ;; Registers used:
  2002 ;;		wreg, status,2
  2003 ;; Tracked objects:
  2004 ;;		On entry : 0/0
  2005 ;;		On exit  : 0/0
  2006 ;;		Unchanged: 0/0
  2007 ;; Data sizes:     COMRAM   BANK0   BANK1   BANK2   BANK3   BANK4   BANK5   BANK6   BANK7   BANK8   BANK9  BANK10  BANK1
      +1  BANK12  BANK13  BANK14  BANK15
  2008 ;;      Params:         2       0       0       0       0       0       0       0       0       0       0       0       
      +0       0       0       0       0
  2009 ;;      Locals:         0       0       0       0       0       0       0       0       0       0       0       0       
      +0       0       0       0       0
  2010 ;;      Temps:          0       0       0       0       0       0       0       0       0       0       0       0       
      +0       0       0       0       0
  2011 ;;      Totals:         2       0       0       0       0       0       0       0       0       0       0       0       
      +0       0       0       0       0
  2012 ;;Total ram usage:        2 bytes
  2013 ;; Hardware stack levels used: 1
  2014 ;; Hardware stack levels required when called: 3
  2015 ;; This function calls:
  2016 ;;		Nothing
  2017 ;; This function is called by:
  2018 ;;		_TIMER0_INTERRUPT_ISR
  2019 ;;		_TIMER0_Init
  2020 ;; This function uses a non-reentrant model
  2021 ;;
  2022                           
  2023                           	psect	text15
  2024   00184C                     __ptext15:
  2025                           	callstack 0
  2026   00184C                     _TIMER0_WRITE:
  2027                           	callstack 20
  2028   00184C                     
  2029                           ;MCAL_LAYER/Timer0/time0.c: 102:     {;MCAL_LAYER/Timer0/time0.c: 103:        (TMR0H=(ui
      +                          nt8)(data>>8));
  2030   00184C  506B               	movf	(TIMER0_WRITE@data+1)^0,w,c
  2031   00184E  6ED7               	movwf	215,c	;volatile
  2032   001850                     
  2033                           ;MCAL_LAYER/Timer0/time0.c: 104:        (TMR0L=(uint8)data);
  2034   001850  C06A  FFD6         	movff	TIMER0_WRITE@data,4054	;volatile
  2035   001854                     
  2036                           ;MCAL_LAYER/Timer0/time0.c: 105:        TIMER0_preload_value_default=data;
  2037   001854  C06A  F015         	movff	TIMER0_WRITE@data,_TIMER0_preload_value_default
  2038   001858  C06B  F016         	movff	TIMER0_WRITE@data+1,_TIMER0_preload_value_default+1
  2039   00185C  0012               	return		;funcret
  2040   00185E                     __end_of_TIMER0_WRITE:
  2041                           	callstack 0
  2042                           
  2043 ;; *************** function _RB7_ISR *****************
  2044 ;; Defined at:
  2045 ;;		line 477 in file "MCAL_LAYER/Interrupt/Interrupt_external.c"
  2046 ;; Parameters:    Size  Location     Type
  2047 ;;		None
  2048 ;; Auto vars:     Size  Location     Type
  2049 ;;		None
  2050 ;; Return value:  Size  Location     Type
  2051 ;;                  1    wreg      void 
  2052 ;; Registers used:
  2053 ;;		wreg, status,2, status,0
  2054 ;; Tracked objects:
  2055 ;;		On entry : 0/0
  2056 ;;		On exit  : 0/0
  2057 ;;		Unchanged: 0/0
  2058 ;; Data sizes:     COMRAM   BANK0   BANK1   BANK2   BANK3   BANK4   BANK5   BANK6   BANK7   BANK8   BANK9  BANK10  BANK1
      +1  BANK12  BANK13  BANK14  BANK15
  2059 ;;      Params:         0       0       0       0       0       0       0       0       0       0       0       0       
      +0       0       0       0       0
  2060 ;;      Locals:         0       0       0       0       0       0       0       0       0       0       0       0       
      +0       0       0       0       0
  2061 ;;      Temps:          1       0       0       0       0       0       0       0       0       0       0       0       
      +0       0       0       0       0
  2062 ;;      Totals:         1       0       0       0       0       0       0       0       0       0       0       0       
      +0       0       0       0       0
  2063 ;;Total ram usage:        1 bytes
  2064 ;; Hardware stack levels used: 1
  2065 ;; Hardware stack levels required when called: 3
  2066 ;; This function calls:
  2067 ;;		Nothing
  2068 ;; This function is called by:
  2069 ;;		_ISR_LOW
  2070 ;; This function uses a non-reentrant model
  2071 ;;
  2072                           
  2073                           	psect	text16
  2074   0016B4                     __ptext16:
  2075                           	callstack 0
  2076   0016B4                     _RB7_ISR:
  2077                           	callstack 21
  2078   0016B4                     
  2079                           ;MCAL_LAYER/Interrupt/Interrupt_external.c: 479:     if(((PORTB >> 7) & 0X01)&&RBx7_Inte
      +                          rruptHandler_HIGH)
  2080   0016B4  6A6A               	clrf	??_RB7_ISR^0,c
  2081   0016B6  AE81               	btfss	129,7,c	;volatile
  2082   0016B8  D001               	bra	i1u44_25
  2083   0016BA  2A6A               	incf	??_RB7_ISR^0,f,c
  2084   0016BC                     i1u44_25:
  2085   0016BC  A06A               	btfss	??_RB7_ISR^0,0,c
  2086   0016BE  EF63  F00B         	goto	i1u45_21
  2087   0016C2  EF65  F00B         	goto	i1u45_20
  2088   0016C6                     i1u45_21:
  2089   0016C6  EF70  F00B         	goto	i1l2294
  2090   0016CA                     i1u45_20:
  2091   0016CA                     
  2092                           ;MCAL_LAYER/Interrupt/Interrupt_external.c: 480:     {;MCAL_LAYER/Interrupt/Interrupt_ex
      +                          ternal.c: 481:         RBx7_InterruptHandler_HIGH();
  2093   0016CA  501B               	movf	_RBx7_InterruptHandler_HIGH^0,w,c
  2094   0016CC  101C               	iorwf	(_RBx7_InterruptHandler_HIGH+1)^0,w,c
  2095   0016CE  B4D8               	btfsc	status,2,c
  2096   0016D0  EF6C  F00B         	goto	i1u46_21
  2097   0016D4  EF6E  F00B         	goto	i1u46_20
  2098   0016D8                     i1u46_21:
  2099   0016D8  EF70  F00B         	goto	i1l2294
  2100   0016DC                     i1u46_20:
  2101   0016DC  EF71  F00B         	goto	i1l992
  2102   0016E0                     i1l2294:
  2103   0016E0  5081               	movf	129,w,c	;volatile
  2104   0016E2                     i1l992:
  2105   0016E2  0012               	return		;funcret
  2106   0016E4                     __end_of_RB7_ISR:
  2107                           	callstack 0
  2108                           
  2109 ;; *************** function _RB6_ISR *****************
  2110 ;; Defined at:
  2111 ;;		line 466 in file "MCAL_LAYER/Interrupt/Interrupt_external.c"
  2112 ;; Parameters:    Size  Location     Type
  2113 ;;		None
  2114 ;; Auto vars:     Size  Location     Type
  2115 ;;		None
  2116 ;; Return value:  Size  Location     Type
  2117 ;;                  1    wreg      void 
  2118 ;; Registers used:
  2119 ;;		wreg, status,2, status,0
  2120 ;; Tracked objects:
  2121 ;;		On entry : 0/0
  2122 ;;		On exit  : 0/0
  2123 ;;		Unchanged: 0/0
  2124 ;; Data sizes:     COMRAM   BANK0   BANK1   BANK2   BANK3   BANK4   BANK5   BANK6   BANK7   BANK8   BANK9  BANK10  BANK1
      +1  BANK12  BANK13  BANK14  BANK15
  2125 ;;      Params:         0       0       0       0       0       0       0       0       0       0       0       0       
      +0       0       0       0       0
  2126 ;;      Locals:         0       0       0       0       0       0       0       0       0       0       0       0       
      +0       0       0       0       0
  2127 ;;      Temps:          2       0       0       0       0       0       0       0       0       0       0       0       
      +0       0       0       0       0
  2128 ;;      Totals:         2       0       0       0       0       0       0       0       0       0       0       0       
      +0       0       0       0       0
  2129 ;;Total ram usage:        2 bytes
  2130 ;; Hardware stack levels used: 1
  2131 ;; Hardware stack levels required when called: 3
  2132 ;; This function calls:
  2133 ;;		Nothing
  2134 ;; This function is called by:
  2135 ;;		_ISR_LOW
  2136 ;; This function uses a non-reentrant model
  2137 ;;
  2138                           
  2139                           	psect	text17
  2140   001568                     __ptext17:
  2141                           	callstack 0
  2142   001568                     _RB6_ISR:
  2143                           	callstack 21
  2144   001568                     
  2145                           ;MCAL_LAYER/Interrupt/Interrupt_external.c: 468:     if(((PORTB >> 6) & 0X01)&&RBx6_Inte
      +                          rruptHandler_HIGH)
  2146   001568  CF81 F06A          	movff	3969,??_RB6_ISR	;volatile
  2147   00156C  0E06               	movlw	6
  2148   00156E  6E6B               	movwf	(??_RB6_ISR+1)^0,c
  2149   001570                     i1u41_25:
  2150   001570  90D8               	bcf	status,0,c
  2151   001572  326A               	rrcf	??_RB6_ISR^0,f,c
  2152   001574  2E6B               	decfsz	(??_RB6_ISR+1)^0,f,c
  2153   001576  EFB8  F00A         	goto	i1u41_25
  2154   00157A  A06A               	btfss	??_RB6_ISR^0,0,c
  2155   00157C  EFC2  F00A         	goto	i1u42_21
  2156   001580  EFC4  F00A         	goto	i1u42_20
  2157   001584                     i1u42_21:
  2158   001584  EFCF  F00A         	goto	i1l2284
  2159   001588                     i1u42_20:
  2160   001588                     
  2161                           ;MCAL_LAYER/Interrupt/Interrupt_external.c: 469:     {;MCAL_LAYER/Interrupt/Interrupt_ex
      +                          ternal.c: 470:         RBx6_InterruptHandler_HIGH();
  2162   001588  501F               	movf	_RBx6_InterruptHandler_HIGH^0,w,c
  2163   00158A  1020               	iorwf	(_RBx6_InterruptHandler_HIGH+1)^0,w,c
  2164   00158C  B4D8               	btfsc	status,2,c
  2165   00158E  EFCB  F00A         	goto	i1u43_21
  2166   001592  EFCD  F00A         	goto	i1u43_20
  2167   001596                     i1u43_21:
  2168   001596  EFCF  F00A         	goto	i1l2284
  2169   00159A                     i1u43_20:
  2170   00159A  EFD0  F00A         	goto	i1l984
  2171   00159E                     i1l2284:
  2172   00159E  5081               	movf	129,w,c	;volatile
  2173   0015A0                     i1l984:
  2174   0015A0  0012               	return		;funcret
  2175   0015A2                     __end_of_RB6_ISR:
  2176                           	callstack 0
  2177                           
  2178 ;; *************** function _RB5_ISR *****************
  2179 ;; Defined at:
  2180 ;;		line 455 in file "MCAL_LAYER/Interrupt/Interrupt_external.c"
  2181 ;; Parameters:    Size  Location     Type
  2182 ;;		None
  2183 ;; Auto vars:     Size  Location     Type
  2184 ;;		None
  2185 ;; Return value:  Size  Location     Type
  2186 ;;                  1    wreg      void 
  2187 ;; Registers used:
  2188 ;;		wreg, status,2, status,0
  2189 ;; Tracked objects:
  2190 ;;		On entry : 0/0
  2191 ;;		On exit  : 0/0
  2192 ;;		Unchanged: 0/0
  2193 ;; Data sizes:     COMRAM   BANK0   BANK1   BANK2   BANK3   BANK4   BANK5   BANK6   BANK7   BANK8   BANK9  BANK10  BANK1
      +1  BANK12  BANK13  BANK14  BANK15
  2194 ;;      Params:         0       0       0       0       0       0       0       0       0       0       0       0       
      +0       0       0       0       0
  2195 ;;      Locals:         0       0       0       0       0       0       0       0       0       0       0       0       
      +0       0       0       0       0
  2196 ;;      Temps:          2       0       0       0       0       0       0       0       0       0       0       0       
      +0       0       0       0       0
  2197 ;;      Totals:         2       0       0       0       0       0       0       0       0       0       0       0       
      +0       0       0       0       0
  2198 ;;Total ram usage:        2 bytes
  2199 ;; Hardware stack levels used: 1
  2200 ;; Hardware stack levels required when called: 3
  2201 ;; This function calls:
  2202 ;;		Nothing
  2203 ;; This function is called by:
  2204 ;;		_ISR_LOW
  2205 ;; This function uses a non-reentrant model
  2206 ;;
  2207                           
  2208                           	psect	text18
  2209   0015A2                     __ptext18:
  2210                           	callstack 0
  2211   0015A2                     _RB5_ISR:
  2212                           	callstack 21
  2213   0015A2                     
  2214                           ;MCAL_LAYER/Interrupt/Interrupt_external.c: 457:     if(((PORTB >> 5) & 0X01)&&RBx5_Inte
      +                          rruptHandler_HIGH)
  2215   0015A2  CF81 F06A          	movff	3969,??_RB5_ISR	;volatile
  2216   0015A6  0E05               	movlw	5
  2217   0015A8  6E6B               	movwf	(??_RB5_ISR+1)^0,c
  2218   0015AA                     i1u38_25:
  2219   0015AA  90D8               	bcf	status,0,c
  2220   0015AC  326A               	rrcf	??_RB5_ISR^0,f,c
  2221   0015AE  2E6B               	decfsz	(??_RB5_ISR+1)^0,f,c
  2222   0015B0  EFD5  F00A         	goto	i1u38_25
  2223   0015B4  A06A               	btfss	??_RB5_ISR^0,0,c
  2224   0015B6  EFDF  F00A         	goto	i1u39_21
  2225   0015BA  EFE1  F00A         	goto	i1u39_20
  2226   0015BE                     i1u39_21:
  2227   0015BE  EFEC  F00A         	goto	i1l2274
  2228   0015C2                     i1u39_20:
  2229   0015C2                     
  2230                           ;MCAL_LAYER/Interrupt/Interrupt_external.c: 458:     {;MCAL_LAYER/Interrupt/Interrupt_ex
      +                          ternal.c: 459:         RBx5_InterruptHandler_HIGH();
  2231   0015C2  5023               	movf	_RBx5_InterruptHandler_HIGH^0,w,c
  2232   0015C4  1024               	iorwf	(_RBx5_InterruptHandler_HIGH+1)^0,w,c
  2233   0015C6  B4D8               	btfsc	status,2,c
  2234   0015C8  EFE8  F00A         	goto	i1u40_21
  2235   0015CC  EFEA  F00A         	goto	i1u40_20
  2236   0015D0                     i1u40_21:
  2237   0015D0  EFEC  F00A         	goto	i1l2274
  2238   0015D4                     i1u40_20:
  2239   0015D4  EFED  F00A         	goto	i1l976
  2240   0015D8                     i1l2274:
  2241   0015D8  5081               	movf	129,w,c	;volatile
  2242   0015DA                     i1l976:
  2243   0015DA  0012               	return		;funcret
  2244   0015DC                     __end_of_RB5_ISR:
  2245                           	callstack 0
  2246                           
  2247 ;; *************** function _RB4_ISR *****************
  2248 ;; Defined at:
  2249 ;;		line 443 in file "MCAL_LAYER/Interrupt/Interrupt_external.c"
  2250 ;; Parameters:    Size  Location     Type
  2251 ;;		None
  2252 ;; Auto vars:     Size  Location     Type
  2253 ;;		None
  2254 ;; Return value:  Size  Location     Type
  2255 ;;                  1    wreg      void 
  2256 ;; Registers used:
  2257 ;;		wreg, status,2, status,0
  2258 ;; Tracked objects:
  2259 ;;		On entry : 0/0
  2260 ;;		On exit  : 0/0
  2261 ;;		Unchanged: 0/0
  2262 ;; Data sizes:     COMRAM   BANK0   BANK1   BANK2   BANK3   BANK4   BANK5   BANK6   BANK7   BANK8   BANK9  BANK10  BANK1
      +1  BANK12  BANK13  BANK14  BANK15
  2263 ;;      Params:         0       0       0       0       0       0       0       0       0       0       0       0       
      +0       0       0       0       0
  2264 ;;      Locals:         0       0       0       0       0       0       0       0       0       0       0       0       
      +0       0       0       0       0
  2265 ;;      Temps:          1       0       0       0       0       0       0       0       0       0       0       0       
      +0       0       0       0       0
  2266 ;;      Totals:         1       0       0       0       0       0       0       0       0       0       0       0       
      +0       0       0       0       0
  2267 ;;Total ram usage:        1 bytes
  2268 ;; Hardware stack levels used: 1
  2269 ;; Hardware stack levels required when called: 3
  2270 ;; This function calls:
  2271 ;;		Nothing
  2272 ;; This function is called by:
  2273 ;;		_ISR_LOW
  2274 ;; This function uses a non-reentrant model
  2275 ;;
  2276                           
  2277                           	psect	text19
  2278   001650                     __ptext19:
  2279                           	callstack 0
  2280   001650                     _RB4_ISR:
  2281                           	callstack 21
  2282   001650                     
  2283                           ;MCAL_LAYER/Interrupt/Interrupt_external.c: 445:     if(((PORTB >> 4) & 0X01)&&RBx4_Inte
      +                          rruptHandler_HIGH)
  2284   001650  CF81 F06A          	movff	3969,??_RB4_ISR	;volatile
  2285   001654  3A6A               	swapf	??_RB4_ISR^0,f,c
  2286   001656  0E0F               	movlw	15
  2287   001658  166A               	andwf	??_RB4_ISR^0,f,c
  2288   00165A  A06A               	btfss	??_RB4_ISR^0,0,c
  2289   00165C  EF32  F00B         	goto	i1u36_21
  2290   001660  EF34  F00B         	goto	i1u36_20
  2291   001664                     i1u36_21:
  2292   001664  EF3F  F00B         	goto	i1l2264
  2293   001668                     i1u36_20:
  2294   001668                     
  2295                           ;MCAL_LAYER/Interrupt/Interrupt_external.c: 446:     {;MCAL_LAYER/Interrupt/Interrupt_ex
      +                          ternal.c: 447:         RBx4_InterruptHandler_HIGH();
  2296   001668  5027               	movf	_RBx4_InterruptHandler_HIGH^0,w,c
  2297   00166A  1028               	iorwf	(_RBx4_InterruptHandler_HIGH+1)^0,w,c
  2298   00166C  B4D8               	btfsc	status,2,c
  2299   00166E  EF3B  F00B         	goto	i1u37_21
  2300   001672  EF3D  F00B         	goto	i1u37_20
  2301   001676                     i1u37_21:
  2302   001676  EF3F  F00B         	goto	i1l2264
  2303   00167A                     i1u37_20:
  2304   00167A  EF40  F00B         	goto	i1l968
  2305   00167E                     i1l2264:
  2306   00167E  5081               	movf	129,w,c	;volatile
  2307   001680                     i1l968:
  2308   001680  0012               	return		;funcret
  2309   001682                     __end_of_RB4_ISR:
  2310                           	callstack 0
  2311                           
  2312 ;; *************** function _INT2_ISR *****************
  2313 ;; Defined at:
  2314 ;;		line 439 in file "MCAL_LAYER/Interrupt/Interrupt_external.c"
  2315 ;; Parameters:    Size  Location     Type
  2316 ;;		None
  2317 ;; Auto vars:     Size  Location     Type
  2318 ;;		None
  2319 ;; Return value:  Size  Location     Type
  2320 ;;                  1    wreg      void 
  2321 ;; Registers used:
  2322 ;;		wreg, status,2, status,0
  2323 ;; Tracked objects:
  2324 ;;		On entry : 0/0
  2325 ;;		On exit  : 0/0
  2326 ;;		Unchanged: 0/0
  2327 ;; Data sizes:     COMRAM   BANK0   BANK1   BANK2   BANK3   BANK4   BANK5   BANK6   BANK7   BANK8   BANK9  BANK10  BANK1
      +1  BANK12  BANK13  BANK14  BANK15
  2328 ;;      Params:         0       0       0       0       0       0       0       0       0       0       0       0       
      +0       0       0       0       0
  2329 ;;      Locals:         0       0       0       0       0       0       0       0       0       0       0       0       
      +0       0       0       0       0
  2330 ;;      Temps:          0       0       0       0       0       0       0       0       0       0       0       0       
      +0       0       0       0       0
  2331 ;;      Totals:         0       0       0       0       0       0       0       0       0       0       0       0       
      +0       0       0       0       0
  2332 ;;Total ram usage:        0 bytes
  2333 ;; Hardware stack levels used: 1
  2334 ;; Hardware stack levels required when called: 3
  2335 ;; This function calls:
  2336 ;;		Nothing
  2337 ;; This function is called by:
  2338 ;;		_ISR_LOW
  2339 ;; This function uses a non-reentrant model
  2340 ;;
  2341                           
  2342                           	psect	text20
  2343   0018DA                     __ptext20:
  2344                           	callstack 0
  2345   0018DA                     _INT2_ISR:
  2346                           	callstack 21
  2347   0018DA  0012               	return		;funcret
  2348   0018DC                     __end_of_INT2_ISR:
  2349                           	callstack 0
  2350                           
  2351 ;; *************** function _INT1_ISR *****************
  2352 ;; Defined at:
  2353 ;;		line 435 in file "MCAL_LAYER/Interrupt/Interrupt_external.c"
  2354 ;; Parameters:    Size  Location     Type
  2355 ;;		None
  2356 ;; Auto vars:     Size  Location     Type
  2357 ;;		None
  2358 ;; Return value:  Size  Location     Type
  2359 ;;                  1    wreg      void 
  2360 ;; Registers used:
  2361 ;;		wreg, status,2, status,0
  2362 ;; Tracked objects:
  2363 ;;		On entry : 0/0
  2364 ;;		On exit  : 0/0
  2365 ;;		Unchanged: 0/0
  2366 ;; Data sizes:     COMRAM   BANK0   BANK1   BANK2   BANK3   BANK4   BANK5   BANK6   BANK7   BANK8   BANK9  BANK10  BANK1
      +1  BANK12  BANK13  BANK14  BANK15
  2367 ;;      Params:         0       0       0       0       0       0       0       0       0       0       0       0       
      +0       0       0       0       0
  2368 ;;      Locals:         0       0       0       0       0       0       0       0       0       0       0       0       
      +0       0       0       0       0
  2369 ;;      Temps:          0       0       0       0       0       0       0       0       0       0       0       0       
      +0       0       0       0       0
  2370 ;;      Totals:         0       0       0       0       0       0       0       0       0       0       0       0       
      +0       0       0       0       0
  2371 ;;Total ram usage:        0 bytes
  2372 ;; Hardware stack levels used: 1
  2373 ;; Hardware stack levels required when called: 3
  2374 ;; This function calls:
  2375 ;;		Nothing
  2376 ;; This function is called by:
  2377 ;;		_ISR_LOW
  2378 ;; This function uses a non-reentrant model
  2379 ;;
  2380                           
  2381                           	psect	text21
  2382   0018DC                     __ptext21:
  2383                           	callstack 0
  2384   0018DC                     _INT1_ISR:
  2385                           	callstack 21
  2386   0018DC  0012               	return		;funcret
  2387   0018DE                     __end_of_INT1_ISR:
  2388                           	callstack 0
  2389                           
  2390 ;; *************** function _ADC_INTERRUPT_ISR *****************
  2391 ;; Defined at:
  2392 ;;		line 166 in file "MCAL_LAYER/ADC/ADC.c"
  2393 ;; Parameters:    Size  Location     Type
  2394 ;;		None
  2395 ;; Auto vars:     Size  Location     Type
  2396 ;;		None
  2397 ;; Return value:  Size  Location     Type
  2398 ;;                  1    wreg      void 
  2399 ;; Registers used:
  2400 ;;		wreg, status,2, status,0
  2401 ;; Tracked objects:
  2402 ;;		On entry : 0/0
  2403 ;;		On exit  : 0/0
  2404 ;;		Unchanged: 0/0
  2405 ;; Data sizes:     COMRAM   BANK0   BANK1   BANK2   BANK3   BANK4   BANK5   BANK6   BANK7   BANK8   BANK9  BANK10  BANK1
      +1  BANK12  BANK13  BANK14  BANK15
  2406 ;;      Params:         0       0       0       0       0       0       0       0       0       0       0       0       
      +0       0       0       0       0
  2407 ;;      Locals:         0       0       0       0       0       0       0       0       0       0       0       0       
      +0       0       0       0       0
  2408 ;;      Temps:          0       0       0       0       0       0       0       0       0       0       0       0       
      +0       0       0       0       0
  2409 ;;      Totals:         0       0       0       0       0       0       0       0       0       0       0       0       
      +0       0       0       0       0
  2410 ;;Total ram usage:        0 bytes
  2411 ;; Hardware stack levels used: 1
  2412 ;; Hardware stack levels required when called: 3
  2413 ;; This function calls:
  2414 ;;		Nothing
  2415 ;; This function is called by:
  2416 ;;		_ISR_LOW
  2417 ;; This function uses a non-reentrant model
  2418 ;;
  2419                           
  2420                           	psect	text22
  2421   0018DE                     __ptext22:
  2422                           	callstack 0
  2423   0018DE                     _ADC_INTERRUPT_ISR:
  2424                           	callstack 21
  2425   0018DE  0012               	return		;funcret
  2426   0018E0                     __end_of_ADC_INTERRUPT_ISR:
  2427                           	callstack 0
  2428                           
  2429 ;; *************** function _ISR_HIGH *****************
  2430 ;; Defined at:
  2431 ;;		line 4 in file "MCAL_LAYER/Interrupt/Interrupt_ISR.c"
  2432 ;; Parameters:    Size  Location     Type
  2433 ;;		None
  2434 ;; Auto vars:     Size  Location     Type
  2435 ;;		None
  2436 ;; Return value:  Size  Location     Type
  2437 ;;                  1    wreg      void 
  2438 ;; Registers used:
  2439 ;;		wreg, status,2, status,0, cstack
  2440 ;; Tracked objects:
  2441 ;;		On entry : 0/0
  2442 ;;		On exit  : 0/0
  2443 ;;		Unchanged: 0/0
  2444 ;; Data sizes:     COMRAM   BANK0   BANK1   BANK2   BANK3   BANK4   BANK5   BANK6   BANK7   BANK8   BANK9  BANK10  BANK1
      +1  BANK12  BANK13  BANK14  BANK15
  2445 ;;      Params:         0       0       0       0       0       0       0       0       0       0       0       0       
      +0       0       0       0       0
  2446 ;;      Locals:         0       0       0       0       0       0       0       0       0       0       0       0       
      +0       0       0       0       0
  2447 ;;      Temps:          1       0       0       0       0       0       0       0       0       0       0       0       
      +0       0       0       0       0
  2448 ;;      Totals:         1       0       0       0       0       0       0       0       0       0       0       0       
      +0       0       0       0       0
  2449 ;;Total ram usage:        1 bytes
  2450 ;; Hardware stack levels used: 1
  2451 ;; Hardware stack levels required when called: 2
  2452 ;; This function calls:
  2453 ;;		_INT0_ISR
  2454 ;;		i2_ADC_INTERRUPT_ISR
  2455 ;;		i2_INT1_ISR
  2456 ;;		i2_INT2_ISR
  2457 ;;		i2_RB4_ISR
  2458 ;;		i2_RB5_ISR
  2459 ;;		i2_RB6_ISR
  2460 ;;		i2_RB7_ISR
  2461 ;;		i2_TIMER0_INTERRUPT_ISR
  2462 ;;		i2_TIMER1_INTERRUPT_ISR
  2463 ;;		i2_TIMER2_INTERRUPT_ISR
  2464 ;;		i2_TIMER3_INTERRUPT_ISR
  2465 ;; This function is called by:
  2466 ;;		Interrupt level 2
  2467 ;; This function uses a non-reentrant model
  2468 ;;
  2469                           
  2470                           	psect	intcode
  2471   000008                     __pintcode:
  2472                           	callstack 0
  2473   000008                     _ISR_HIGH:
  2474                           	callstack 20
  2475                           
  2476                           ;incstack = 0
  2477   000008  8277               	bsf	int$flags,1,c	;set compiler interrupt flag (level 2)
  2478   00000A  ED03  F008         	call	int_func,f	;refresh shadow registers
  2479                           
  2480                           	psect	intcode_body
  2481   001006                     __pintcode_body:
  2482                           	callstack 20
  2483   001006                     int_func:
  2484                           	callstack 20
  2485   001006  0006               	pop		; remove dummy address from shadow register refresh
  2486   001008                     
  2487                           ;MCAL_LAYER/Interrupt/Interrupt_ISR.c: 6:     if((INTCONbits.INT0IE==1)&&(INTCONbits.INT
      +                          0IF ==1))
  2488   001008  A8F2               	btfss	242,4,c	;volatile
  2489   00100A  EF09  F008         	goto	i2u447_41
  2490   00100E  EF0B  F008         	goto	i2u447_40
  2491   001012                     i2u447_41:
  2492   001012  EF16  F008         	goto	i2l5298
  2493   001016                     i2u447_40:
  2494   001016  A2F2               	btfss	242,1,c	;volatile
  2495   001018  EF10  F008         	goto	i2u448_41
  2496   00101C  EF12  F008         	goto	i2u448_40
  2497   001020                     i2u448_41:
  2498   001020  EF16  F008         	goto	i2l5298
  2499   001024                     i2u448_40:
  2500   001024                     
  2501                           ;MCAL_LAYER/Interrupt/Interrupt_ISR.c: 7:     {;MCAL_LAYER/Interrupt/Interrupt_ISR.c: 8:
      +                                   (INTCONbits.INT0IF=0);
  2502   001024  92F2               	bcf	242,1,c	;volatile
  2503   001026                     
  2504                           ;MCAL_LAYER/Interrupt/Interrupt_ISR.c: 9:         INT0_ISR();
  2505   001026  EC73  F00C         	call	_INT0_ISR	;wreg free
  2506   00102A                     
  2507                           ;MCAL_LAYER/Interrupt/Interrupt_ISR.c: 10:         (INTCONbits.INT0IF=0);
  2508   00102A  92F2               	bcf	242,1,c	;volatile
  2509   00102C                     i2l5298:
  2510                           
  2511                           ;MCAL_LAYER/Interrupt/Interrupt_ISR.c: 12:     if((INTCON3bits.INT1IE==1)&&(INTCON3bits.
      +                          INT1IF==1)&&(INTCON3bits.INT1IP==1))
  2512   00102C  A6F0               	btfss	240,3,c	;volatile
  2513   00102E  EF1B  F008         	goto	i2u449_41
  2514   001032  EF1D  F008         	goto	i2u449_40
  2515   001036                     i2u449_41:
  2516   001036  EF2F  F008         	goto	i2l5310
  2517   00103A                     i2u449_40:
  2518   00103A  A0F0               	btfss	240,0,c	;volatile
  2519   00103C  EF22  F008         	goto	i2u450_41
  2520   001040  EF24  F008         	goto	i2u450_40
  2521   001044                     i2u450_41:
  2522   001044  EF2F  F008         	goto	i2l5310
  2523   001048                     i2u450_40:
  2524   001048  ACF0               	btfss	240,6,c	;volatile
  2525   00104A  EF29  F008         	goto	i2u451_41
  2526   00104E  EF2B  F008         	goto	i2u451_40
  2527   001052                     i2u451_41:
  2528   001052  EF2F  F008         	goto	i2l5310
  2529   001056                     i2u451_40:
  2530   001056                     
  2531                           ;MCAL_LAYER/Interrupt/Interrupt_ISR.c: 13:     {;MCAL_LAYER/Interrupt/Interrupt_ISR.c: 1
      +                          4:         (INTCON3bits.INT1IF=0);
  2532   001056  90F0               	bcf	240,0,c	;volatile
  2533   001058                     
  2534                           ;MCAL_LAYER/Interrupt/Interrupt_ISR.c: 15:         INT1_ISR();
  2535   001058  EC71  F00C         	call	i2_INT1_ISR	;wreg free
  2536   00105C                     
  2537                           ;MCAL_LAYER/Interrupt/Interrupt_ISR.c: 16:         (INTCON3bits.INT1IF=0);
  2538   00105C  90F0               	bcf	240,0,c	;volatile
  2539   00105E                     i2l5310:
  2540                           
  2541                           ;MCAL_LAYER/Interrupt/Interrupt_ISR.c: 18:     if((INTCON3bits.INT2IE==1)&&(INTCON3bits.
      +                          INT2IF==1)&&(INTCON3bits.INT2IP==1))
  2542   00105E  A8F0               	btfss	240,4,c	;volatile
  2543   001060  EF34  F008         	goto	i2u452_41
  2544   001064  EF36  F008         	goto	i2u452_40
  2545   001068                     i2u452_41:
  2546   001068  EF48  F008         	goto	i2l5322
  2547   00106C                     i2u452_40:
  2548   00106C  A2F0               	btfss	240,1,c	;volatile
  2549   00106E  EF3B  F008         	goto	i2u453_41
  2550   001072  EF3D  F008         	goto	i2u453_40
  2551   001076                     i2u453_41:
  2552   001076  EF48  F008         	goto	i2l5322
  2553   00107A                     i2u453_40:
  2554   00107A  AEF0               	btfss	240,7,c	;volatile
  2555   00107C  EF42  F008         	goto	i2u454_41
  2556   001080  EF44  F008         	goto	i2u454_40
  2557   001084                     i2u454_41:
  2558   001084  EF48  F008         	goto	i2l5322
  2559   001088                     i2u454_40:
  2560   001088                     
  2561                           ;MCAL_LAYER/Interrupt/Interrupt_ISR.c: 19:     {;MCAL_LAYER/Interrupt/Interrupt_ISR.c: 2
      +                          0:         (INTCON3bits.INT2IF=0);
  2562   001088  92F0               	bcf	240,1,c	;volatile
  2563   00108A                     
  2564                           ;MCAL_LAYER/Interrupt/Interrupt_ISR.c: 21:         INT2_ISR();
  2565   00108A  EC70  F00C         	call	i2_INT2_ISR	;wreg free
  2566   00108E                     
  2567                           ;MCAL_LAYER/Interrupt/Interrupt_ISR.c: 22:         (INTCON3bits.INT2IF=0);
  2568   00108E  92F0               	bcf	240,1,c	;volatile
  2569   001090                     i2l5322:
  2570                           
  2571                           ;MCAL_LAYER/Interrupt/Interrupt_ISR.c: 24:     if((INTCONbits.RBIE==1)&&(INTCONbits.RBIF
      +                          ==1))
  2572   001090  A6F2               	btfss	242,3,c	;volatile
  2573   001092  EF4D  F008         	goto	i2u455_41
  2574   001096  EF4F  F008         	goto	i2u455_40
  2575   00109A                     i2u455_41:
  2576   00109A  EF93  F008         	goto	i2l5348
  2577   00109E                     i2u455_40:
  2578   00109E  A0F2               	btfss	242,0,c	;volatile
  2579   0010A0  EF54  F008         	goto	i2u456_41
  2580   0010A4  EF56  F008         	goto	i2u456_40
  2581   0010A8                     i2u456_41:
  2582   0010A8  EF93  F008         	goto	i2l5348
  2583   0010AC                     i2u456_40:
  2584   0010AC                     
  2585                           ;MCAL_LAYER/Interrupt/Interrupt_ISR.c: 25:     {;MCAL_LAYER/Interrupt/Interrupt_ISR.c: 2
      +                          6:         (INTCONbits.RBIF=0);
  2586   0010AC  90F2               	bcf	242,0,c	;volatile
  2587   0010AE                     
  2588                           ;MCAL_LAYER/Interrupt/Interrupt_ISR.c: 27:          if((PORTB^portb_prev)&0x10)
  2589   0010AE  5081               	movf	129,w,c	;volatile
  2590   0010B0  1832               	xorwf	_portb_prev^0,w,c	;volatile
  2591   0010B2  6E69               	movwf	??_ISR_HIGH^0,c
  2592   0010B4  A869               	btfss	??_ISR_HIGH^0,4,c
  2593   0010B6  EF5F  F008         	goto	i2u457_41
  2594   0010BA  EF61  F008         	goto	i2u457_40
  2595   0010BE                     i2u457_41:
  2596   0010BE  EF65  F008         	goto	i2l5332
  2597   0010C2                     i2u457_40:
  2598   0010C2                     
  2599                           ;MCAL_LAYER/Interrupt/Interrupt_ISR.c: 28:          {;MCAL_LAYER/Interrupt/Interrupt_ISR
      +                          .c: 29:         RB4_ISR();
  2600   0010C2  EC41  F00B         	call	i2_RB4_ISR	;wreg free
  2601                           
  2602                           ;MCAL_LAYER/Interrupt/Interrupt_ISR.c: 30:          }
  2603   0010C6  EF8F  F008         	goto	i2l5344
  2604   0010CA                     i2l5332:
  2605   0010CA  5081               	movf	129,w,c	;volatile
  2606   0010CC  1832               	xorwf	_portb_prev^0,w,c	;volatile
  2607   0010CE  6E69               	movwf	??_ISR_HIGH^0,c
  2608   0010D0  AA69               	btfss	??_ISR_HIGH^0,5,c
  2609   0010D2  EF6D  F008         	goto	i2u458_41
  2610   0010D6  EF6F  F008         	goto	i2u458_40
  2611   0010DA                     i2u458_41:
  2612   0010DA  EF73  F008         	goto	i2l5336
  2613   0010DE                     i2u458_40:
  2614   0010DE                     
  2615                           ;MCAL_LAYER/Interrupt/Interrupt_ISR.c: 32:          {;MCAL_LAYER/Interrupt/Interrupt_ISR
      +                          .c: 33:         RB5_ISR();
  2616   0010DE  EC0B  F00B         	call	i2_RB5_ISR	;wreg free
  2617                           
  2618                           ;MCAL_LAYER/Interrupt/Interrupt_ISR.c: 34:          }
  2619   0010E2  EF8F  F008         	goto	i2l5344
  2620   0010E6                     i2l5336:
  2621   0010E6  5081               	movf	129,w,c	;volatile
  2622   0010E8  1832               	xorwf	_portb_prev^0,w,c	;volatile
  2623   0010EA  6E69               	movwf	??_ISR_HIGH^0,c
  2624   0010EC  AC69               	btfss	??_ISR_HIGH^0,6,c
  2625   0010EE  EF7B  F008         	goto	i2u459_41
  2626   0010F2  EF7D  F008         	goto	i2u459_40
  2627   0010F6                     i2u459_41:
  2628   0010F6  EF81  F008         	goto	i2l5340
  2629   0010FA                     i2u459_40:
  2630   0010FA                     
  2631                           ;MCAL_LAYER/Interrupt/Interrupt_ISR.c: 36:          {;MCAL_LAYER/Interrupt/Interrupt_ISR
      +                          .c: 37:         RB6_ISR();
  2632   0010FA  ECEE  F00A         	call	i2_RB6_ISR	;wreg free
  2633                           
  2634                           ;MCAL_LAYER/Interrupt/Interrupt_ISR.c: 38:          }
  2635   0010FE  EF8F  F008         	goto	i2l5344
  2636   001102                     i2l5340:
  2637   001102  5081               	movf	129,w,c	;volatile
  2638   001104  1832               	xorwf	_portb_prev^0,w,c	;volatile
  2639   001106  6E69               	movwf	??_ISR_HIGH^0,c
  2640   001108  AE69               	btfss	??_ISR_HIGH^0,7,c
  2641   00110A  EF89  F008         	goto	i2u460_41
  2642   00110E  EF8B  F008         	goto	i2u460_40
  2643   001112                     i2u460_41:
  2644   001112  EF8F  F008         	goto	i2l736
  2645   001116                     i2u460_40:
  2646   001116                     
  2647                           ;MCAL_LAYER/Interrupt/Interrupt_ISR.c: 40:          {;MCAL_LAYER/Interrupt/Interrupt_ISR
      +                          .c: 41:         RB7_ISR();
  2648   001116  EC72  F00B         	call	i2_RB7_ISR	;wreg free
  2649   00111A  EF8F  F008         	goto	i2l5344
  2650   00111E                     i2l736:
  2651   00111E                     i2l5344:
  2652                           
  2653                           ;MCAL_LAYER/Interrupt/Interrupt_ISR.c: 44:         (INTCONbits.RBIF=0);
  2654   00111E  90F2               	bcf	242,0,c	;volatile
  2655   001120                     
  2656                           ;MCAL_LAYER/Interrupt/Interrupt_ISR.c: 45:         portb_prev=PORTB&0xF0;
  2657   001120  5081               	movf	129,w,c	;volatile
  2658   001122  0BF0               	andlw	240
  2659   001124  6E32               	movwf	_portb_prev^0,c	;volatile
  2660   001126                     i2l5348:
  2661                           
  2662                           ;MCAL_LAYER/Interrupt/Interrupt_ISR.c: 48:     if((PIE1bits.ADIE==1)&&(PIR1bits.ADIF ==1
      +                          )&&(IPR1bits.ADIP==1))
  2663   001126  AC9D               	btfss	157,6,c	;volatile
  2664   001128  EF98  F008         	goto	i2u461_41
  2665   00112C  EF9A  F008         	goto	i2u461_40
  2666   001130                     i2u461_41:
  2667   001130  EFAC  F008         	goto	i2l5360
  2668   001134                     i2u461_40:
  2669   001134  AC9E               	btfss	158,6,c	;volatile
  2670   001136  EF9F  F008         	goto	i2u462_41
  2671   00113A  EFA1  F008         	goto	i2u462_40
  2672   00113E                     i2u462_41:
  2673   00113E  EFAC  F008         	goto	i2l5360
  2674   001142                     i2u462_40:
  2675   001142  AC9F               	btfss	159,6,c	;volatile
  2676   001144  EFA6  F008         	goto	i2u463_41
  2677   001148  EFA8  F008         	goto	i2u463_40
  2678   00114C                     i2u463_41:
  2679   00114C  EFAC  F008         	goto	i2l5360
  2680   001150                     i2u463_40:
  2681   001150                     
  2682                           ;MCAL_LAYER/Interrupt/Interrupt_ISR.c: 49:     {;MCAL_LAYER/Interrupt/Interrupt_ISR.c: 5
      +                          0:         (PIR1bits.ADIF=0);
  2683   001150  9C9E               	bcf	158,6,c	;volatile
  2684   001152                     
  2685                           ;MCAL_LAYER/Interrupt/Interrupt_ISR.c: 51:         ADC_INTERRUPT_ISR();
  2686   001152  EC72  F00C         	call	i2_ADC_INTERRUPT_ISR	;wreg free
  2687   001156                     
  2688                           ;MCAL_LAYER/Interrupt/Interrupt_ISR.c: 52:         (PIR1bits.ADIF=0);
  2689   001156  9C9E               	bcf	158,6,c	;volatile
  2690   001158                     i2l5360:
  2691                           
  2692                           ;MCAL_LAYER/Interrupt/Interrupt_ISR.c: 57:     if((INTCONbits.TMR0IE==1)&&(INTCONbits.TM
      +                          R0IF ==1)&&(INTCON2bits.TMR0IP==1))
  2693   001158  AAF2               	btfss	242,5,c	;volatile
  2694   00115A  EFB1  F008         	goto	i2u464_41
  2695   00115E  EFB3  F008         	goto	i2u464_40
  2696   001162                     i2u464_41:
  2697   001162  EFC5  F008         	goto	i2l5372
  2698   001166                     i2u464_40:
  2699   001166  A4F2               	btfss	242,2,c	;volatile
  2700   001168  EFB8  F008         	goto	i2u465_41
  2701   00116C  EFBA  F008         	goto	i2u465_40
  2702   001170                     i2u465_41:
  2703   001170  EFC5  F008         	goto	i2l5372
  2704   001174                     i2u465_40:
  2705   001174  A4F1               	btfss	241,2,c	;volatile
  2706   001176  EFBF  F008         	goto	i2u466_41
  2707   00117A  EFC1  F008         	goto	i2u466_40
  2708   00117E                     i2u466_41:
  2709   00117E  EFC5  F008         	goto	i2l5372
  2710   001182                     i2u466_40:
  2711   001182                     
  2712                           ;MCAL_LAYER/Interrupt/Interrupt_ISR.c: 58:     {;MCAL_LAYER/Interrupt/Interrupt_ISR.c: 5
      +                          9:         (INTCONbits.TMR0IF=0);
  2713   001182  94F2               	bcf	242,2,c	;volatile
  2714   001184                     
  2715                           ;MCAL_LAYER/Interrupt/Interrupt_ISR.c: 60:         TIMER0_INTERRUPT_ISR();
  2716   001184  ECDA  F00B         	call	i2_TIMER0_INTERRUPT_ISR	;wreg free
  2717   001188                     
  2718                           ;MCAL_LAYER/Interrupt/Interrupt_ISR.c: 61:         (INTCONbits.TMR0IF=0);
  2719   001188  94F2               	bcf	242,2,c	;volatile
  2720   00118A                     i2l5372:
  2721                           
  2722                           ;MCAL_LAYER/Interrupt/Interrupt_ISR.c: 66:     if((PIE1bits.TMR1IE==1)&&(PIR1bits.TMR1IF
      +                           ==1)&&(IPR1bits.TMR1IP==1))
  2723   00118A  A09D               	btfss	157,0,c	;volatile
  2724   00118C  EFCA  F008         	goto	i2u467_41
  2725   001190  EFCC  F008         	goto	i2u467_40
  2726   001194                     i2u467_41:
  2727   001194  EFDE  F008         	goto	i2l5384
  2728   001198                     i2u467_40:
  2729   001198  A09E               	btfss	158,0,c	;volatile
  2730   00119A  EFD1  F008         	goto	i2u468_41
  2731   00119E  EFD3  F008         	goto	i2u468_40
  2732   0011A2                     i2u468_41:
  2733   0011A2  EFDE  F008         	goto	i2l5384
  2734   0011A6                     i2u468_40:
  2735   0011A6  A09F               	btfss	159,0,c	;volatile
  2736   0011A8  EFD8  F008         	goto	i2u469_41
  2737   0011AC  EFDA  F008         	goto	i2u469_40
  2738   0011B0                     i2u469_41:
  2739   0011B0  EFDE  F008         	goto	i2l5384
  2740   0011B4                     i2u469_40:
  2741   0011B4                     
  2742                           ;MCAL_LAYER/Interrupt/Interrupt_ISR.c: 67:     {;MCAL_LAYER/Interrupt/Interrupt_ISR.c: 6
      +                          8:         (PIR1bits.TMR1IF=0);
  2743   0011B4  909E               	bcf	158,0,c	;volatile
  2744   0011B6                     
  2745                           ;MCAL_LAYER/Interrupt/Interrupt_ISR.c: 69:         TIMER1_INTERRUPT_ISR();
  2746   0011B6  ECCA  F00B         	call	i2_TIMER1_INTERRUPT_ISR	;wreg free
  2747   0011BA                     
  2748                           ;MCAL_LAYER/Interrupt/Interrupt_ISR.c: 70:         (PIR1bits.TMR1IF=0);
  2749   0011BA  909E               	bcf	158,0,c	;volatile
  2750   0011BC                     i2l5384:
  2751                           
  2752                           ;MCAL_LAYER/Interrupt/Interrupt_ISR.c: 74:     if((PIE1bits.TMR2IE==1)&&(PIR1bits.TMR2IF
      +                           ==1)&&(IPR1bits.TMR2IP==1))
  2753   0011BC  A29D               	btfss	157,1,c	;volatile
  2754   0011BE  EFE3  F008         	goto	i2u470_41
  2755   0011C2  EFE5  F008         	goto	i2u470_40
  2756   0011C6                     i2u470_41:
  2757   0011C6  EFF7  F008         	goto	i2l5396
  2758   0011CA                     i2u470_40:
  2759   0011CA  A29E               	btfss	158,1,c	;volatile
  2760   0011CC  EFEA  F008         	goto	i2u471_41
  2761   0011D0  EFEC  F008         	goto	i2u471_40
  2762   0011D4                     i2u471_41:
  2763   0011D4  EFF7  F008         	goto	i2l5396
  2764   0011D8                     i2u471_40:
  2765   0011D8  A29F               	btfss	159,1,c	;volatile
  2766   0011DA  EFF1  F008         	goto	i2u472_41
  2767   0011DE  EFF3  F008         	goto	i2u472_40
  2768   0011E2                     i2u472_41:
  2769   0011E2  EFF7  F008         	goto	i2l5396
  2770   0011E6                     i2u472_40:
  2771   0011E6                     
  2772                           ;MCAL_LAYER/Interrupt/Interrupt_ISR.c: 75:     {;MCAL_LAYER/Interrupt/Interrupt_ISR.c: 7
      +                          6:         (PIR1bits.TMR2IF=0);
  2773   0011E6  929E               	bcf	158,1,c	;volatile
  2774   0011E8                     
  2775                           ;MCAL_LAYER/Interrupt/Interrupt_ISR.c: 77:         TIMER2_INTERRUPT_ISR();
  2776   0011E8  EC07  F00C         	call	i2_TIMER2_INTERRUPT_ISR	;wreg free
  2777   0011EC                     
  2778                           ;MCAL_LAYER/Interrupt/Interrupt_ISR.c: 78:         (PIR1bits.TMR2IF=0);
  2779   0011EC  929E               	bcf	158,1,c	;volatile
  2780   0011EE                     i2l5396:
  2781                           
  2782                           ;MCAL_LAYER/Interrupt/Interrupt_ISR.c: 83:     if((PIE2bits.TMR3IE==1)&&(PIR2bits.TMR3IF
      +                           ==1)&&(IPR2bits.TMR3IP==1))
  2783   0011EE  A2A0               	btfss	160,1,c	;volatile
  2784   0011F0  EFFC  F008         	goto	i2u473_41
  2785   0011F4  EFFE  F008         	goto	i2u473_40
  2786   0011F8                     i2u473_41:
  2787   0011F8  EF10  F009         	goto	i2l745
  2788   0011FC                     i2u473_40:
  2789   0011FC  A2A1               	btfss	161,1,c	;volatile
  2790   0011FE  EF03  F009         	goto	i2u474_41
  2791   001202  EF05  F009         	goto	i2u474_40
  2792   001206                     i2u474_41:
  2793   001206  EF10  F009         	goto	i2l745
  2794   00120A                     i2u474_40:
  2795   00120A  A2A2               	btfss	162,1,c	;volatile
  2796   00120C  EF0A  F009         	goto	i2u475_41
  2797   001210  EF0C  F009         	goto	i2u475_40
  2798   001214                     i2u475_41:
  2799   001214  EF10  F009         	goto	i2l745
  2800   001218                     i2u475_40:
  2801   001218                     
  2802                           ;MCAL_LAYER/Interrupt/Interrupt_ISR.c: 84:     {;MCAL_LAYER/Interrupt/Interrupt_ISR.c: 8
      +                          5:         (PIR2bits.TMR3IF=0);
  2803   001218  92A1               	bcf	161,1,c	;volatile
  2804   00121A                     
  2805                           ;MCAL_LAYER/Interrupt/Interrupt_ISR.c: 86:         TIMER3_INTERRUPT_ISR();
  2806   00121A  ECBA  F00B         	call	i2_TIMER3_INTERRUPT_ISR	;wreg free
  2807   00121E                     
  2808                           ;MCAL_LAYER/Interrupt/Interrupt_ISR.c: 87:         (PIR2bits.TMR3IF=0);
  2809   00121E  92A1               	bcf	161,1,c	;volatile
  2810   001220                     i2l745:
  2811   001220  9277               	bcf	int$flags,1,c	;clear compiler interrupt flag (level 2)
  2812   001222  0011               	retfie		f
  2813   001224                     __end_of_ISR_HIGH:
  2814                           	callstack 0
  2815                           
  2816 ;; *************** function i2_TIMER3_INTERRUPT_ISR *****************
  2817 ;; Defined at:
  2818 ;;		line 118 in file "MCAL_LAYER/Timer3/timer3.c"
  2819 ;; Parameters:    Size  Location     Type
  2820 ;;		None
  2821 ;; Auto vars:     Size  Location     Type
  2822 ;;		None
  2823 ;; Return value:  Size  Location     Type
  2824 ;;                  1    wreg      void 
  2825 ;; Registers used:
  2826 ;;		wreg, status,2, status,0, cstack
  2827 ;; Tracked objects:
  2828 ;;		On entry : 0/0
  2829 ;;		On exit  : 0/0
  2830 ;;		Unchanged: 0/0
  2831 ;; Data sizes:     COMRAM   BANK0   BANK1   BANK2   BANK3   BANK4   BANK5   BANK6   BANK7   BANK8   BANK9  BANK10  BANK1
      +1  BANK12  BANK13  BANK14  BANK15
  2832 ;;      Params:         0       0       0       0       0       0       0       0       0       0       0       0       
      +0       0       0       0       0
  2833 ;;      Locals:         0       0       0       0       0       0       0       0       0       0       0       0       
      +0       0       0       0       0
  2834 ;;      Temps:          0       0       0       0       0       0       0       0       0       0       0       0       
      +0       0       0       0       0
  2835 ;;      Totals:         0       0       0       0       0       0       0       0       0       0       0       0       
      +0       0       0       0       0
  2836 ;;Total ram usage:        0 bytes
  2837 ;; Hardware stack levels used: 1
  2838 ;; Hardware stack levels required when called: 1
  2839 ;; This function calls:
  2840 ;;		i2_TIMER3_WRITE
  2841 ;; This function is called by:
  2842 ;;		_ISR_HIGH
  2843 ;; This function uses a non-reentrant model
  2844 ;;
  2845                           
  2846                           	psect	text24
  2847   001774                     __ptext24:
  2848                           	callstack 0
  2849   001774                     i2_TIMER3_INTERRUPT_ISR:
  2850                           	callstack 20
  2851   001774                     
  2852                           ;MCAL_LAYER/Timer3/timer3.c: 119:     if(TIMER3_InterruptHandler)
  2853   001774  500D               	movf	_TIMER3_InterruptHandler^0,w,c
  2854   001776  100E               	iorwf	(_TIMER3_InterruptHandler+1)^0,w,c
  2855   001778  B4D8               	btfsc	status,2,c
  2856   00177A  EFC1  F00B         	goto	i2u345_41
  2857   00177E  EFC3  F00B         	goto	i2u345_40
  2858   001782                     i2u345_41:
  2859   001782  EFC9  F00B         	goto	i2l1214
  2860   001786                     i2u345_40:
  2861   001786                     
  2862                           ;MCAL_LAYER/Timer3/timer3.c: 122:         TIMER3_InterruptHandler();
  2863   001786  C00B  F067         	movff	_TIMER3_preload_value_default,i2TIMER3_WRITE@data
  2864   00178A  C00C  F068         	movff	_TIMER3_preload_value_default+1,i2TIMER3_WRITE@data+1
  2865   00178E  EC2F  F00C         	call	i2_TIMER3_WRITE	;wreg free
  2866   001792                     i2l1214:
  2867   001792  0012               	return		;funcret
  2868   001794                     __end_ofi2_TIMER3_INTERRUPT_ISR:
  2869                           	callstack 0
  2870                           
  2871 ;; *************** function i2_TIMER3_WRITE *****************
  2872 ;; Defined at:
  2873 ;;		line 90 in file "MCAL_LAYER/Timer3/timer3.c"
  2874 ;; Parameters:    Size  Location     Type
  2875 ;;  data            2    0[COMRAM] unsigned short 
  2876 ;; Auto vars:     Size  Location     Type
  2877 ;;  ret             1    0        unsigned char 
  2878 ;; Return value:  Size  Location     Type
  2879 ;;                  1    wreg      unsigned char 
  2880 ;; Registers used:
  2881 ;;		wreg, status,2
  2882 ;; Tracked objects:
  2883 ;;		On entry : 0/0
  2884 ;;		On exit  : 0/0
  2885 ;;		Unchanged: 0/0
  2886 ;; Data sizes:     COMRAM   BANK0   BANK1   BANK2   BANK3   BANK4   BANK5   BANK6   BANK7   BANK8   BANK9  BANK10  BANK1
      +1  BANK12  BANK13  BANK14  BANK15
  2887 ;;      Params:         2       0       0       0       0       0       0       0       0       0       0       0       
      +0       0       0       0       0
  2888 ;;      Locals:         0       0       0       0       0       0       0       0       0       0       0       0       
      +0       0       0       0       0
  2889 ;;      Temps:          0       0       0       0       0       0       0       0       0       0       0       0       
      +0       0       0       0       0
  2890 ;;      Totals:         2       0       0       0       0       0       0       0       0       0       0       0       
      +0       0       0       0       0
  2891 ;;Total ram usage:        2 bytes
  2892 ;; Hardware stack levels used: 1
  2893 ;; This function calls:
  2894 ;;		Nothing
  2895 ;; This function is called by:
  2896 ;;		i2_TIMER3_INTERRUPT_ISR
  2897 ;; This function uses a non-reentrant model
  2898 ;;
  2899                           
  2900                           	psect	text25
  2901   00185E                     __ptext25:
  2902                           	callstack 0
  2903   00185E                     i2_TIMER3_WRITE:
  2904                           	callstack 20
  2905   00185E                     
  2906                           ;MCAL_LAYER/Timer3/timer3.c: 96:     {;MCAL_LAYER/Timer3/timer3.c: 97:        (TMR3H=(ui
      +                          nt8)(data>>8));
  2907   00185E  5068               	movf	(i2TIMER3_WRITE@data+1)^0,w,c
  2908   001860  6EB3               	movwf	179,c	;volatile
  2909   001862                     
  2910                           ;MCAL_LAYER/Timer3/timer3.c: 98:        (TMR3L=(uint8)data);
  2911   001862  C067  FFB2         	movff	i2TIMER3_WRITE@data,4018	;volatile
  2912   001866                     
  2913                           ;MCAL_LAYER/Timer3/timer3.c: 99:        TIMER3_preload_value_default=data;
  2914   001866  C067  F00B         	movff	i2TIMER3_WRITE@data,_TIMER3_preload_value_default
  2915   00186A  C068  F00C         	movff	i2TIMER3_WRITE@data+1,_TIMER3_preload_value_default+1
  2916   00186E  0012               	return		;funcret
  2917   001870                     __end_ofi2_TIMER3_WRITE:
  2918                           	callstack 0
  2919                           
  2920 ;; *************** function i2_TIMER2_INTERRUPT_ISR *****************
  2921 ;; Defined at:
  2922 ;;		line 95 in file "MCAL_LAYER/Timer2/timer2.c"
  2923 ;; Parameters:    Size  Location     Type
  2924 ;;		None
  2925 ;; Auto vars:     Size  Location     Type
  2926 ;;		None
  2927 ;; Return value:  Size  Location     Type
  2928 ;;                  1    wreg      void 
  2929 ;; Registers used:
  2930 ;;		wreg, status,2, status,0, cstack
  2931 ;; Tracked objects:
  2932 ;;		On entry : 0/0
  2933 ;;		On exit  : 0/0
  2934 ;;		Unchanged: 0/0
  2935 ;; Data sizes:     COMRAM   BANK0   BANK1   BANK2   BANK3   BANK4   BANK5   BANK6   BANK7   BANK8   BANK9  BANK10  BANK1
      +1  BANK12  BANK13  BANK14  BANK15
  2936 ;;      Params:         0       0       0       0       0       0       0       0       0       0       0       0       
      +0       0       0       0       0
  2937 ;;      Locals:         0       0       0       0       0       0       0       0       0       0       0       0       
      +0       0       0       0       0
  2938 ;;      Temps:          0       0       0       0       0       0       0       0       0       0       0       0       
      +0       0       0       0       0
  2939 ;;      Totals:         0       0       0       0       0       0       0       0       0       0       0       0       
      +0       0       0       0       0
  2940 ;;Total ram usage:        0 bytes
  2941 ;; Hardware stack levels used: 1
  2942 ;; Hardware stack levels required when called: 1
  2943 ;; This function calls:
  2944 ;;		i2_TIMER2_WRITE
  2945 ;; This function is called by:
  2946 ;;		_ISR_HIGH
  2947 ;; This function uses a non-reentrant model
  2948 ;;
  2949                           
  2950                           	psect	text26
  2951   00180E                     __ptext26:
  2952                           	callstack 0
  2953   00180E                     i2_TIMER2_INTERRUPT_ISR:
  2954                           	callstack 20
  2955   00180E                     
  2956                           ;MCAL_LAYER/Timer2/timer2.c: 96:     if(TIMER2_InterruptHandler)
  2957   00180E  500F               	movf	_TIMER2_InterruptHandler^0,w,c
  2958   001810  1010               	iorwf	(_TIMER2_InterruptHandler+1)^0,w,c
  2959   001812  B4D8               	btfsc	status,2,c
  2960   001814  EF0E  F00C         	goto	i2u344_41
  2961   001818  EF10  F00C         	goto	i2u344_40
  2962   00181C                     i2u344_41:
  2963   00181C  EF13  F00C         	goto	i2l1154
  2964   001820                     i2u344_40:
  2965   001820                     
  2966                           ;MCAL_LAYER/Timer2/timer2.c: 99:         TIMER2_InterruptHandler();
  2967   001820  5031               	movf	_TIMER2_preload_value_default^0,w,c
  2968   001822  EC64  F00C         	call	i2_TIMER2_WRITE
  2969   001826                     i2l1154:
  2970   001826  0012               	return		;funcret
  2971   001828                     __end_ofi2_TIMER2_INTERRUPT_ISR:
  2972                           	callstack 0
  2973                           
  2974 ;; *************** function i2_TIMER2_WRITE *****************
  2975 ;; Defined at:
  2976 ;;		line 70 in file "MCAL_LAYER/Timer2/timer2.c"
  2977 ;; Parameters:    Size  Location     Type
  2978 ;;  data            1    wreg     unsigned char 
  2979 ;; Auto vars:     Size  Location     Type
  2980 ;;  data            1    0[COMRAM] unsigned char 
  2981 ;;  ret             1    0        unsigned char 
  2982 ;; Return value:  Size  Location     Type
  2983 ;;                  1    wreg      unsigned char 
  2984 ;; Registers used:
  2985 ;;		wreg, status,2
  2986 ;; Tracked objects:
  2987 ;;		On entry : 0/0
  2988 ;;		On exit  : 0/0
  2989 ;;		Unchanged: 0/0
  2990 ;; Data sizes:     COMRAM   BANK0   BANK1   BANK2   BANK3   BANK4   BANK5   BANK6   BANK7   BANK8   BANK9  BANK10  BANK1
      +1  BANK12  BANK13  BANK14  BANK15
  2991 ;;      Params:         0       0       0       0       0       0       0       0       0       0       0       0       
      +0       0       0       0       0
  2992 ;;      Locals:         1       0       0       0       0       0       0       0       0       0       0       0       
      +0       0       0       0       0
  2993 ;;      Temps:          0       0       0       0       0       0       0       0       0       0       0       0       
      +0       0       0       0       0
  2994 ;;      Totals:         1       0       0       0       0       0       0       0       0       0       0       0       
      +0       0       0       0       0
  2995 ;;Total ram usage:        1 bytes
  2996 ;; Hardware stack levels used: 1
  2997 ;; This function calls:
  2998 ;;		Nothing
  2999 ;; This function is called by:
  3000 ;;		i2_TIMER2_INTERRUPT_ISR
  3001 ;; This function uses a non-reentrant model
  3002 ;;
  3003                           
  3004                           	psect	text27
  3005   0018C8                     __ptext27:
  3006                           	callstack 0
  3007   0018C8                     i2_TIMER2_WRITE:
  3008                           	callstack 20
  3009                           
  3010                           ;incstack = 0
  3011                           ;i2TIMER2_WRITE@data stored from wreg
  3012   0018C8  6E67               	movwf	i2TIMER2_WRITE@data^0,c
  3013   0018CA                     
  3014                           ;MCAL_LAYER/Timer2/timer2.c: 76:     {;MCAL_LAYER/Timer2/timer2.c: 77:        (TMR2=data
      +                          );
  3015   0018CA  C067  FFCC         	movff	i2TIMER2_WRITE@data,4044	;volatile
  3016                           
  3017                           ;MCAL_LAYER/Timer2/timer2.c: 78:        TIMER2_preload_value_default=data;
  3018   0018CE  C067  F031         	movff	i2TIMER2_WRITE@data,_TIMER2_preload_value_default
  3019   0018D2  0012               	return		;funcret
  3020   0018D4                     __end_ofi2_TIMER2_WRITE:
  3021                           	callstack 0
  3022                           
  3023 ;; *************** function i2_TIMER1_INTERRUPT_ISR *****************
  3024 ;; Defined at:
  3025 ;;		line 119 in file "MCAL_LAYER/Timer1/timer1.c"
  3026 ;; Parameters:    Size  Location     Type
  3027 ;;		None
  3028 ;; Auto vars:     Size  Location     Type
  3029 ;;		None
  3030 ;; Return value:  Size  Location     Type
  3031 ;;                  1    wreg      void 
  3032 ;; Registers used:
  3033 ;;		wreg, status,2, status,0, cstack
  3034 ;; Tracked objects:
  3035 ;;		On entry : 0/0
  3036 ;;		On exit  : 0/0
  3037 ;;		Unchanged: 0/0
  3038 ;; Data sizes:     COMRAM   BANK0   BANK1   BANK2   BANK3   BANK4   BANK5   BANK6   BANK7   BANK8   BANK9  BANK10  BANK1
      +1  BANK12  BANK13  BANK14  BANK15
  3039 ;;      Params:         0       0       0       0       0       0       0       0       0       0       0       0       
      +0       0       0       0       0
  3040 ;;      Locals:         0       0       0       0       0       0       0       0       0       0       0       0       
      +0       0       0       0       0
  3041 ;;      Temps:          0       0       0       0       0       0       0       0       0       0       0       0       
      +0       0       0       0       0
  3042 ;;      Totals:         0       0       0       0       0       0       0       0       0       0       0       0       
      +0       0       0       0       0
  3043 ;;Total ram usage:        0 bytes
  3044 ;; Hardware stack levels used: 1
  3045 ;; Hardware stack levels required when called: 1
  3046 ;; This function calls:
  3047 ;;		i2_TIMER1_WRITE
  3048 ;; This function is called by:
  3049 ;;		_ISR_HIGH
  3050 ;; This function uses a non-reentrant model
  3051 ;;
  3052                           
  3053                           	psect	text28
  3054   001794                     __ptext28:
  3055                           	callstack 0
  3056   001794                     i2_TIMER1_INTERRUPT_ISR:
  3057                           	callstack 20
  3058   001794                     
  3059                           ;MCAL_LAYER/Timer1/timer1.c: 120:     if(TIMER1_InterruptHandler)
  3060   001794  5013               	movf	_TIMER1_InterruptHandler^0,w,c
  3061   001796  1014               	iorwf	(_TIMER1_InterruptHandler+1)^0,w,c
  3062   001798  B4D8               	btfsc	status,2,c
  3063   00179A  EFD1  F00B         	goto	i2u343_41
  3064   00179E  EFD3  F00B         	goto	i2u343_40
  3065   0017A2                     i2u343_41:
  3066   0017A2  EFD9  F00B         	goto	i2l1106
  3067   0017A6                     i2u343_40:
  3068   0017A6                     
  3069                           ;MCAL_LAYER/Timer1/timer1.c: 123:         TIMER1_InterruptHandler();
  3070   0017A6  C011  F067         	movff	_TIMER1_preload_value_default,i2TIMER1_WRITE@data
  3071   0017AA  C012  F068         	movff	_TIMER1_preload_value_default+1,i2TIMER1_WRITE@data+1
  3072   0017AE  EC38  F00C         	call	i2_TIMER1_WRITE	;wreg free
  3073   0017B2                     i2l1106:
  3074   0017B2  0012               	return		;funcret
  3075   0017B4                     __end_ofi2_TIMER1_INTERRUPT_ISR:
  3076                           	callstack 0
  3077                           
  3078 ;; *************** function i2_TIMER1_WRITE *****************
  3079 ;; Defined at:
  3080 ;;		line 91 in file "MCAL_LAYER/Timer1/timer1.c"
  3081 ;; Parameters:    Size  Location     Type
  3082 ;;  data            2    0[COMRAM] unsigned short 
  3083 ;; Auto vars:     Size  Location     Type
  3084 ;;  ret             1    0        unsigned char 
  3085 ;; Return value:  Size  Location     Type
  3086 ;;                  1    wreg      unsigned char 
  3087 ;; Registers used:
  3088 ;;		wreg, status,2
  3089 ;; Tracked objects:
  3090 ;;		On entry : 0/0
  3091 ;;		On exit  : 0/0
  3092 ;;		Unchanged: 0/0
  3093 ;; Data sizes:     COMRAM   BANK0   BANK1   BANK2   BANK3   BANK4   BANK5   BANK6   BANK7   BANK8   BANK9  BANK10  BANK1
      +1  BANK12  BANK13  BANK14  BANK15
  3094 ;;      Params:         2       0       0       0       0       0       0       0       0       0       0       0       
      +0       0       0       0       0
  3095 ;;      Locals:         0       0       0       0       0       0       0       0       0       0       0       0       
      +0       0       0       0       0
  3096 ;;      Temps:          0       0       0       0       0       0       0       0       0       0       0       0       
      +0       0       0       0       0
  3097 ;;      Totals:         2       0       0       0       0       0       0       0       0       0       0       0       
      +0       0       0       0       0
  3098 ;;Total ram usage:        2 bytes
  3099 ;; Hardware stack levels used: 1
  3100 ;; This function calls:
  3101 ;;		Nothing
  3102 ;; This function is called by:
  3103 ;;		i2_TIMER1_INTERRUPT_ISR
  3104 ;; This function uses a non-reentrant model
  3105 ;;
  3106                           
  3107                           	psect	text29
  3108   001870                     __ptext29:
  3109                           	callstack 0
  3110   001870                     i2_TIMER1_WRITE:
  3111                           	callstack 20
  3112   001870                     
  3113                           ;MCAL_LAYER/Timer1/timer1.c: 97:     {;MCAL_LAYER/Timer1/timer1.c: 98:        (TMR1H=(ui
      +                          nt8)(data>>8));
  3114   001870  5068               	movf	(i2TIMER1_WRITE@data+1)^0,w,c
  3115   001872  6ECF               	movwf	207,c	;volatile
  3116   001874                     
  3117                           ;MCAL_LAYER/Timer1/timer1.c: 99:        (TMR1L=(uint8)data);
  3118   001874  C067  FFCE         	movff	i2TIMER1_WRITE@data,4046	;volatile
  3119   001878                     
  3120                           ;MCAL_LAYER/Timer1/timer1.c: 100:        TIMER1_preload_value_default=data;
  3121   001878  C067  F011         	movff	i2TIMER1_WRITE@data,_TIMER1_preload_value_default
  3122   00187C  C068  F012         	movff	i2TIMER1_WRITE@data+1,_TIMER1_preload_value_default+1
  3123   001880  0012               	return		;funcret
  3124   001882                     __end_ofi2_TIMER1_WRITE:
  3125                           	callstack 0
  3126                           
  3127 ;; *************** function i2_TIMER0_INTERRUPT_ISR *****************
  3128 ;; Defined at:
  3129 ;;		line 124 in file "MCAL_LAYER/Timer0/time0.c"
  3130 ;; Parameters:    Size  Location     Type
  3131 ;;		None
  3132 ;; Auto vars:     Size  Location     Type
  3133 ;;		None
  3134 ;; Return value:  Size  Location     Type
  3135 ;;                  1    wreg      void 
  3136 ;; Registers used:
  3137 ;;		wreg, status,2, status,0, cstack
  3138 ;; Tracked objects:
  3139 ;;		On entry : 0/0
  3140 ;;		On exit  : 0/0
  3141 ;;		Unchanged: 0/0
  3142 ;; Data sizes:     COMRAM   BANK0   BANK1   BANK2   BANK3   BANK4   BANK5   BANK6   BANK7   BANK8   BANK9  BANK10  BANK1
      +1  BANK12  BANK13  BANK14  BANK15
  3143 ;;      Params:         0       0       0       0       0       0       0       0       0       0       0       0       
      +0       0       0       0       0
  3144 ;;      Locals:         0       0       0       0       0       0       0       0       0       0       0       0       
      +0       0       0       0       0
  3145 ;;      Temps:          0       0       0       0       0       0       0       0       0       0       0       0       
      +0       0       0       0       0
  3146 ;;      Totals:         0       0       0       0       0       0       0       0       0       0       0       0       
      +0       0       0       0       0
  3147 ;;Total ram usage:        0 bytes
  3148 ;; Hardware stack levels used: 1
  3149 ;; Hardware stack levels required when called: 1
  3150 ;; This function calls:
  3151 ;;		i2_TIMER0_WRITE
  3152 ;; This function is called by:
  3153 ;;		_ISR_HIGH
  3154 ;; This function uses a non-reentrant model
  3155 ;;
  3156                           
  3157                           	psect	text30
  3158   0017B4                     __ptext30:
  3159                           	callstack 0
  3160   0017B4                     i2_TIMER0_INTERRUPT_ISR:
  3161                           	callstack 20
  3162   0017B4                     
  3163                           ;MCAL_LAYER/Timer0/time0.c: 125:     if(TIMER0_InterruptHandler)
  3164   0017B4  5017               	movf	_TIMER0_InterruptHandler^0,w,c
  3165   0017B6  1018               	iorwf	(_TIMER0_InterruptHandler+1)^0,w,c
  3166   0017B8  B4D8               	btfsc	status,2,c
  3167   0017BA  EFE1  F00B         	goto	i2u342_41
  3168   0017BE  EFE3  F00B         	goto	i2u342_40
  3169   0017C2                     i2u342_41:
  3170   0017C2  EFE9  F00B         	goto	i2l1048
  3171   0017C6                     i2u342_40:
  3172   0017C6                     
  3173                           ;MCAL_LAYER/Timer0/time0.c: 128:         TIMER0_InterruptHandler();
  3174   0017C6  C015  F067         	movff	_TIMER0_preload_value_default,i2TIMER0_WRITE@data
  3175   0017CA  C016  F068         	movff	_TIMER0_preload_value_default+1,i2TIMER0_WRITE@data+1
  3176   0017CE  EC41  F00C         	call	i2_TIMER0_WRITE	;wreg free
  3177   0017D2                     i2l1048:
  3178   0017D2  0012               	return		;funcret
  3179   0017D4                     __end_ofi2_TIMER0_INTERRUPT_ISR:
  3180                           	callstack 0
  3181                           
  3182 ;; *************** function i2_TIMER0_WRITE *****************
  3183 ;; Defined at:
  3184 ;;		line 96 in file "MCAL_LAYER/Timer0/time0.c"
  3185 ;; Parameters:    Size  Location     Type
  3186 ;;  data            2    0[COMRAM] unsigned short 
  3187 ;; Auto vars:     Size  Location     Type
  3188 ;;  ret             1    0        unsigned char 
  3189 ;; Return value:  Size  Location     Type
  3190 ;;                  1    wreg      unsigned char 
  3191 ;; Registers used:
  3192 ;;		wreg, status,2
  3193 ;; Tracked objects:
  3194 ;;		On entry : 0/0
  3195 ;;		On exit  : 0/0
  3196 ;;		Unchanged: 0/0
  3197 ;; Data sizes:     COMRAM   BANK0   BANK1   BANK2   BANK3   BANK4   BANK5   BANK6   BANK7   BANK8   BANK9  BANK10  BANK1
      +1  BANK12  BANK13  BANK14  BANK15
  3198 ;;      Params:         2       0       0       0       0       0       0       0       0       0       0       0       
      +0       0       0       0       0
  3199 ;;      Locals:         0       0       0       0       0       0       0       0       0       0       0       0       
      +0       0       0       0       0
  3200 ;;      Temps:          0       0       0       0       0       0       0       0       0       0       0       0       
      +0       0       0       0       0
  3201 ;;      Totals:         2       0       0       0       0       0       0       0       0       0       0       0       
      +0       0       0       0       0
  3202 ;;Total ram usage:        2 bytes
  3203 ;; Hardware stack levels used: 1
  3204 ;; This function calls:
  3205 ;;		Nothing
  3206 ;; This function is called by:
  3207 ;;		i2_TIMER0_INTERRUPT_ISR
  3208 ;; This function uses a non-reentrant model
  3209 ;;
  3210                           
  3211                           	psect	text31
  3212   001882                     __ptext31:
  3213                           	callstack 0
  3214   001882                     i2_TIMER0_WRITE:
  3215                           	callstack 20
  3216   001882                     
  3217                           ;MCAL_LAYER/Timer0/time0.c: 102:     {;MCAL_LAYER/Timer0/time0.c: 103:        (TMR0H=(ui
      +                          nt8)(data>>8));
  3218   001882  5068               	movf	(i2TIMER0_WRITE@data+1)^0,w,c
  3219   001884  6ED7               	movwf	215,c	;volatile
  3220   001886                     
  3221                           ;MCAL_LAYER/Timer0/time0.c: 104:        (TMR0L=(uint8)data);
  3222   001886  C067  FFD6         	movff	i2TIMER0_WRITE@data,4054	;volatile
  3223   00188A                     
  3224                           ;MCAL_LAYER/Timer0/time0.c: 105:        TIMER0_preload_value_default=data;
  3225   00188A  C067  F015         	movff	i2TIMER0_WRITE@data,_TIMER0_preload_value_default
  3226   00188E  C068  F016         	movff	i2TIMER0_WRITE@data+1,_TIMER0_preload_value_default+1
  3227   001892  0012               	return		;funcret
  3228   001894                     __end_ofi2_TIMER0_WRITE:
  3229                           	callstack 0
  3230                           
  3231 ;; *************** function i2_RB7_ISR *****************
  3232 ;; Defined at:
  3233 ;;		line 477 in file "MCAL_LAYER/Interrupt/Interrupt_external.c"
  3234 ;; Parameters:    Size  Location     Type
  3235 ;;		None
  3236 ;; Auto vars:     Size  Location     Type
  3237 ;;		None
  3238 ;; Return value:  Size  Location     Type
  3239 ;;                  1    wreg      void 
  3240 ;; Registers used:
  3241 ;;		wreg, status,2, status,0
  3242 ;; Tracked objects:
  3243 ;;		On entry : 0/0
  3244 ;;		On exit  : 0/0
  3245 ;;		Unchanged: 0/0
  3246 ;; Data sizes:     COMRAM   BANK0   BANK1   BANK2   BANK3   BANK4   BANK5   BANK6   BANK7   BANK8   BANK9  BANK10  BANK1
      +1  BANK12  BANK13  BANK14  BANK15
  3247 ;;      Params:         0       0       0       0       0       0       0       0       0       0       0       0       
      +0       0       0       0       0
  3248 ;;      Locals:         0       0       0       0       0       0       0       0       0       0       0       0       
      +0       0       0       0       0
  3249 ;;      Temps:          1       0       0       0       0       0       0       0       0       0       0       0       
      +0       0       0       0       0
  3250 ;;      Totals:         1       0       0       0       0       0       0       0       0       0       0       0       
      +0       0       0       0       0
  3251 ;;Total ram usage:        1 bytes
  3252 ;; Hardware stack levels used: 1
  3253 ;; This function calls:
  3254 ;;		Nothing
  3255 ;; This function is called by:
  3256 ;;		_ISR_HIGH
  3257 ;; This function uses a non-reentrant model
  3258 ;;
  3259                           
  3260                           	psect	text32
  3261   0016E4                     __ptext32:
  3262                           	callstack 0
  3263   0016E4                     i2_RB7_ISR:
  3264                           	callstack 21
  3265   0016E4                     
  3266                           ;MCAL_LAYER/Interrupt/Interrupt_external.c: 479:     if(((PORTB >> 7) & 0X01)&&RBx7_Inte
      +                          rruptHandler_HIGH)
  3267   0016E4  6A67               	clrf	??i2_RB7_ISR^0,c
  3268   0016E6  AE81               	btfss	129,7,c	;volatile
  3269   0016E8  D001               	bra	i2u59_45
  3270   0016EA  2A67               	incf	??i2_RB7_ISR^0,f,c
  3271   0016EC                     i2u59_45:
  3272   0016EC  A067               	btfss	??i2_RB7_ISR^0,0,c
  3273   0016EE  EF7B  F00B         	goto	i2u60_41
  3274   0016F2  EF7D  F00B         	goto	i2u60_40
  3275   0016F6                     i2u60_41:
  3276   0016F6  EF88  F00B         	goto	i2l2358
  3277   0016FA                     i2u60_40:
  3278   0016FA                     
  3279                           ;MCAL_LAYER/Interrupt/Interrupt_external.c: 480:     {;MCAL_LAYER/Interrupt/Interrupt_ex
      +                          ternal.c: 481:         RBx7_InterruptHandler_HIGH();
  3280   0016FA  501B               	movf	_RBx7_InterruptHandler_HIGH^0,w,c
  3281   0016FC  101C               	iorwf	(_RBx7_InterruptHandler_HIGH+1)^0,w,c
  3282   0016FE  B4D8               	btfsc	status,2,c
  3283   001700  EF84  F00B         	goto	i2u61_41
  3284   001704  EF86  F00B         	goto	i2u61_40
  3285   001708                     i2u61_41:
  3286   001708  EF88  F00B         	goto	i2l2358
  3287   00170C                     i2u61_40:
  3288   00170C  EF89  F00B         	goto	i2l992
  3289   001710                     i2l2358:
  3290   001710  5081               	movf	129,w,c	;volatile
  3291   001712                     i2l992:
  3292   001712  0012               	return		;funcret
  3293   001714                     __end_ofi2_RB7_ISR:
  3294                           	callstack 0
  3295                           
  3296 ;; *************** function i2_RB6_ISR *****************
  3297 ;; Defined at:
  3298 ;;		line 466 in file "MCAL_LAYER/Interrupt/Interrupt_external.c"
  3299 ;; Parameters:    Size  Location     Type
  3300 ;;		None
  3301 ;; Auto vars:     Size  Location     Type
  3302 ;;		None
  3303 ;; Return value:  Size  Location     Type
  3304 ;;                  1    wreg      void 
  3305 ;; Registers used:
  3306 ;;		wreg, status,2, status,0
  3307 ;; Tracked objects:
  3308 ;;		On entry : 0/0
  3309 ;;		On exit  : 0/0
  3310 ;;		Unchanged: 0/0
  3311 ;; Data sizes:     COMRAM   BANK0   BANK1   BANK2   BANK3   BANK4   BANK5   BANK6   BANK7   BANK8   BANK9  BANK10  BANK1
      +1  BANK12  BANK13  BANK14  BANK15
  3312 ;;      Params:         0       0       0       0       0       0       0       0       0       0       0       0       
      +0       0       0       0       0
  3313 ;;      Locals:         0       0       0       0       0       0       0       0       0       0       0       0       
      +0       0       0       0       0
  3314 ;;      Temps:          2       0       0       0       0       0       0       0       0       0       0       0       
      +0       0       0       0       0
  3315 ;;      Totals:         2       0       0       0       0       0       0       0       0       0       0       0       
      +0       0       0       0       0
  3316 ;;Total ram usage:        2 bytes
  3317 ;; Hardware stack levels used: 1
  3318 ;; This function calls:
  3319 ;;		Nothing
  3320 ;; This function is called by:
  3321 ;;		_ISR_HIGH
  3322 ;; This function uses a non-reentrant model
  3323 ;;
  3324                           
  3325                           	psect	text33
  3326   0015DC                     __ptext33:
  3327                           	callstack 0
  3328   0015DC                     i2_RB6_ISR:
  3329                           	callstack 21
  3330   0015DC                     
  3331                           ;MCAL_LAYER/Interrupt/Interrupt_external.c: 468:     if(((PORTB >> 6) & 0X01)&&RBx6_Inte
      +                          rruptHandler_HIGH)
  3332   0015DC  CF81 F067          	movff	3969,??i2_RB6_ISR	;volatile
  3333   0015E0  0E06               	movlw	6
  3334   0015E2  6E68               	movwf	(??i2_RB6_ISR+1)^0,c
  3335   0015E4                     i2u56_45:
  3336   0015E4  90D8               	bcf	status,0,c
  3337   0015E6  3267               	rrcf	??i2_RB6_ISR^0,f,c
  3338   0015E8  2E68               	decfsz	(??i2_RB6_ISR+1)^0,f,c
  3339   0015EA  EFF2  F00A         	goto	i2u56_45
  3340   0015EE  A067               	btfss	??i2_RB6_ISR^0,0,c
  3341   0015F0  EFFC  F00A         	goto	i2u57_41
  3342   0015F4  EFFE  F00A         	goto	i2u57_40
  3343   0015F8                     i2u57_41:
  3344   0015F8  EF09  F00B         	goto	i2l2348
  3345   0015FC                     i2u57_40:
  3346   0015FC                     
  3347                           ;MCAL_LAYER/Interrupt/Interrupt_external.c: 469:     {;MCAL_LAYER/Interrupt/Interrupt_ex
      +                          ternal.c: 470:         RBx6_InterruptHandler_HIGH();
  3348   0015FC  501F               	movf	_RBx6_InterruptHandler_HIGH^0,w,c
  3349   0015FE  1020               	iorwf	(_RBx6_InterruptHandler_HIGH+1)^0,w,c
  3350   001600  B4D8               	btfsc	status,2,c
  3351   001602  EF05  F00B         	goto	i2u58_41
  3352   001606  EF07  F00B         	goto	i2u58_40
  3353   00160A                     i2u58_41:
  3354   00160A  EF09  F00B         	goto	i2l2348
  3355   00160E                     i2u58_40:
  3356   00160E  EF0A  F00B         	goto	i2l984
  3357   001612                     i2l2348:
  3358   001612  5081               	movf	129,w,c	;volatile
  3359   001614                     i2l984:
  3360   001614  0012               	return		;funcret
  3361   001616                     __end_ofi2_RB6_ISR:
  3362                           	callstack 0
  3363                           
  3364 ;; *************** function i2_RB5_ISR *****************
  3365 ;; Defined at:
  3366 ;;		line 455 in file "MCAL_LAYER/Interrupt/Interrupt_external.c"
  3367 ;; Parameters:    Size  Location     Type
  3368 ;;		None
  3369 ;; Auto vars:     Size  Location     Type
  3370 ;;		None
  3371 ;; Return value:  Size  Location     Type
  3372 ;;                  1    wreg      void 
  3373 ;; Registers used:
  3374 ;;		wreg, status,2, status,0
  3375 ;; Tracked objects:
  3376 ;;		On entry : 0/0
  3377 ;;		On exit  : 0/0
  3378 ;;		Unchanged: 0/0
  3379 ;; Data sizes:     COMRAM   BANK0   BANK1   BANK2   BANK3   BANK4   BANK5   BANK6   BANK7   BANK8   BANK9  BANK10  BANK1
      +1  BANK12  BANK13  BANK14  BANK15
  3380 ;;      Params:         0       0       0       0       0       0       0       0       0       0       0       0       
      +0       0       0       0       0
  3381 ;;      Locals:         0       0       0       0       0       0       0       0       0       0       0       0       
      +0       0       0       0       0
  3382 ;;      Temps:          2       0       0       0       0       0       0       0       0       0       0       0       
      +0       0       0       0       0
  3383 ;;      Totals:         2       0       0       0       0       0       0       0       0       0       0       0       
      +0       0       0       0       0
  3384 ;;Total ram usage:        2 bytes
  3385 ;; Hardware stack levels used: 1
  3386 ;; This function calls:
  3387 ;;		Nothing
  3388 ;; This function is called by:
  3389 ;;		_ISR_HIGH
  3390 ;; This function uses a non-reentrant model
  3391 ;;
  3392                           
  3393                           	psect	text34
  3394   001616                     __ptext34:
  3395                           	callstack 0
  3396   001616                     i2_RB5_ISR:
  3397                           	callstack 21
  3398   001616                     
  3399                           ;MCAL_LAYER/Interrupt/Interrupt_external.c: 457:     if(((PORTB >> 5) & 0X01)&&RBx5_Inte
      +                          rruptHandler_HIGH)
  3400   001616  CF81 F067          	movff	3969,??i2_RB5_ISR	;volatile
  3401   00161A  0E05               	movlw	5
  3402   00161C  6E68               	movwf	(??i2_RB5_ISR+1)^0,c
  3403   00161E                     i2u53_45:
  3404   00161E  90D8               	bcf	status,0,c
  3405   001620  3267               	rrcf	??i2_RB5_ISR^0,f,c
  3406   001622  2E68               	decfsz	(??i2_RB5_ISR+1)^0,f,c
  3407   001624  EF0F  F00B         	goto	i2u53_45
  3408   001628  A067               	btfss	??i2_RB5_ISR^0,0,c
  3409   00162A  EF19  F00B         	goto	i2u54_41
  3410   00162E  EF1B  F00B         	goto	i2u54_40
  3411   001632                     i2u54_41:
  3412   001632  EF26  F00B         	goto	i2l2338
  3413   001636                     i2u54_40:
  3414   001636                     
  3415                           ;MCAL_LAYER/Interrupt/Interrupt_external.c: 458:     {;MCAL_LAYER/Interrupt/Interrupt_ex
      +                          ternal.c: 459:         RBx5_InterruptHandler_HIGH();
  3416   001636  5023               	movf	_RBx5_InterruptHandler_HIGH^0,w,c
  3417   001638  1024               	iorwf	(_RBx5_InterruptHandler_HIGH+1)^0,w,c
  3418   00163A  B4D8               	btfsc	status,2,c
  3419   00163C  EF22  F00B         	goto	i2u55_41
  3420   001640  EF24  F00B         	goto	i2u55_40
  3421   001644                     i2u55_41:
  3422   001644  EF26  F00B         	goto	i2l2338
  3423   001648                     i2u55_40:
  3424   001648  EF27  F00B         	goto	i2l976
  3425   00164C                     i2l2338:
  3426   00164C  5081               	movf	129,w,c	;volatile
  3427   00164E                     i2l976:
  3428   00164E  0012               	return		;funcret
  3429   001650                     __end_ofi2_RB5_ISR:
  3430                           	callstack 0
  3431                           
  3432 ;; *************** function i2_RB4_ISR *****************
  3433 ;; Defined at:
  3434 ;;		line 443 in file "MCAL_LAYER/Interrupt/Interrupt_external.c"
  3435 ;; Parameters:    Size  Location     Type
  3436 ;;		None
  3437 ;; Auto vars:     Size  Location     Type
  3438 ;;		None
  3439 ;; Return value:  Size  Location     Type
  3440 ;;                  1    wreg      void 
  3441 ;; Registers used:
  3442 ;;		wreg, status,2, status,0
  3443 ;; Tracked objects:
  3444 ;;		On entry : 0/0
  3445 ;;		On exit  : 0/0
  3446 ;;		Unchanged: 0/0
  3447 ;; Data sizes:     COMRAM   BANK0   BANK1   BANK2   BANK3   BANK4   BANK5   BANK6   BANK7   BANK8   BANK9  BANK10  BANK1
      +1  BANK12  BANK13  BANK14  BANK15
  3448 ;;      Params:         0       0       0       0       0       0       0       0       0       0       0       0       
      +0       0       0       0       0
  3449 ;;      Locals:         0       0       0       0       0       0       0       0       0       0       0       0       
      +0       0       0       0       0
  3450 ;;      Temps:          1       0       0       0       0       0       0       0       0       0       0       0       
      +0       0       0       0       0
  3451 ;;      Totals:         1       0       0       0       0       0       0       0       0       0       0       0       
      +0       0       0       0       0
  3452 ;;Total ram usage:        1 bytes
  3453 ;; Hardware stack levels used: 1
  3454 ;; This function calls:
  3455 ;;		Nothing
  3456 ;; This function is called by:
  3457 ;;		_ISR_HIGH
  3458 ;; This function uses a non-reentrant model
  3459 ;;
  3460                           
  3461                           	psect	text35
  3462   001682                     __ptext35:
  3463                           	callstack 0
  3464   001682                     i2_RB4_ISR:
  3465                           	callstack 21
  3466   001682                     
  3467                           ;MCAL_LAYER/Interrupt/Interrupt_external.c: 445:     if(((PORTB >> 4) & 0X01)&&RBx4_Inte
      +                          rruptHandler_HIGH)
  3468   001682  CF81 F067          	movff	3969,??i2_RB4_ISR	;volatile
  3469   001686  3A67               	swapf	??i2_RB4_ISR^0,f,c
  3470   001688  0E0F               	movlw	15
  3471   00168A  1667               	andwf	??i2_RB4_ISR^0,f,c
  3472   00168C  A067               	btfss	??i2_RB4_ISR^0,0,c
  3473   00168E  EF4B  F00B         	goto	i2u51_41
  3474   001692  EF4D  F00B         	goto	i2u51_40
  3475   001696                     i2u51_41:
  3476   001696  EF58  F00B         	goto	i2l2328
  3477   00169A                     i2u51_40:
  3478   00169A                     
  3479                           ;MCAL_LAYER/Interrupt/Interrupt_external.c: 446:     {;MCAL_LAYER/Interrupt/Interrupt_ex
      +                          ternal.c: 447:         RBx4_InterruptHandler_HIGH();
  3480   00169A  5027               	movf	_RBx4_InterruptHandler_HIGH^0,w,c
  3481   00169C  1028               	iorwf	(_RBx4_InterruptHandler_HIGH+1)^0,w,c
  3482   00169E  B4D8               	btfsc	status,2,c
  3483   0016A0  EF54  F00B         	goto	i2u52_41
  3484   0016A4  EF56  F00B         	goto	i2u52_40
  3485   0016A8                     i2u52_41:
  3486   0016A8  EF58  F00B         	goto	i2l2328
  3487   0016AC                     i2u52_40:
  3488   0016AC  EF59  F00B         	goto	i2l968
  3489   0016B0                     i2l2328:
  3490   0016B0  5081               	movf	129,w,c	;volatile
  3491   0016B2                     i2l968:
  3492   0016B2  0012               	return		;funcret
  3493   0016B4                     __end_ofi2_RB4_ISR:
  3494                           	callstack 0
  3495                           
  3496 ;; *************** function i2_INT2_ISR *****************
  3497 ;; Defined at:
  3498 ;;		line 439 in file "MCAL_LAYER/Interrupt/Interrupt_external.c"
  3499 ;; Parameters:    Size  Location     Type
  3500 ;;		None
  3501 ;; Auto vars:     Size  Location     Type
  3502 ;;		None
  3503 ;; Return value:  Size  Location     Type
  3504 ;;                  1    wreg      void 
  3505 ;; Registers used:
  3506 ;;		wreg, status,2, status,0
  3507 ;; Tracked objects:
  3508 ;;		On entry : 0/0
  3509 ;;		On exit  : 0/0
  3510 ;;		Unchanged: 0/0
  3511 ;; Data sizes:     COMRAM   BANK0   BANK1   BANK2   BANK3   BANK4   BANK5   BANK6   BANK7   BANK8   BANK9  BANK10  BANK1
      +1  BANK12  BANK13  BANK14  BANK15
  3512 ;;      Params:         0       0       0       0       0       0       0       0       0       0       0       0       
      +0       0       0       0       0
  3513 ;;      Locals:         0       0       0       0       0       0       0       0       0       0       0       0       
      +0       0       0       0       0
  3514 ;;      Temps:          0       0       0       0       0       0       0       0       0       0       0       0       
      +0       0       0       0       0
  3515 ;;      Totals:         0       0       0       0       0       0       0       0       0       0       0       0       
      +0       0       0       0       0
  3516 ;;Total ram usage:        0 bytes
  3517 ;; Hardware stack levels used: 1
  3518 ;; This function calls:
  3519 ;;		Nothing
  3520 ;; This function is called by:
  3521 ;;		_ISR_HIGH
  3522 ;; This function uses a non-reentrant model
  3523 ;;
  3524                           
  3525                           	psect	text36
  3526   0018E0                     __ptext36:
  3527                           	callstack 0
  3528   0018E0                     i2_INT2_ISR:
  3529                           	callstack 21
  3530   0018E0  0012               	return		;funcret
  3531   0018E2                     __end_ofi2_INT2_ISR:
  3532                           	callstack 0
  3533                           
  3534 ;; *************** function i2_INT1_ISR *****************
  3535 ;; Defined at:
  3536 ;;		line 435 in file "MCAL_LAYER/Interrupt/Interrupt_external.c"
  3537 ;; Parameters:    Size  Location     Type
  3538 ;;		None
  3539 ;; Auto vars:     Size  Location     Type
  3540 ;;		None
  3541 ;; Return value:  Size  Location     Type
  3542 ;;                  1    wreg      void 
  3543 ;; Registers used:
  3544 ;;		wreg, status,2, status,0
  3545 ;; Tracked objects:
  3546 ;;		On entry : 0/0
  3547 ;;		On exit  : 0/0
  3548 ;;		Unchanged: 0/0
  3549 ;; Data sizes:     COMRAM   BANK0   BANK1   BANK2   BANK3   BANK4   BANK5   BANK6   BANK7   BANK8   BANK9  BANK10  BANK1
      +1  BANK12  BANK13  BANK14  BANK15
  3550 ;;      Params:         0       0       0       0       0       0       0       0       0       0       0       0       
      +0       0       0       0       0
  3551 ;;      Locals:         0       0       0       0       0       0       0       0       0       0       0       0       
      +0       0       0       0       0
  3552 ;;      Temps:          0       0       0       0       0       0       0       0       0       0       0       0       
      +0       0       0       0       0
  3553 ;;      Totals:         0       0       0       0       0       0       0       0       0       0       0       0       
      +0       0       0       0       0
  3554 ;;Total ram usage:        0 bytes
  3555 ;; Hardware stack levels used: 1
  3556 ;; This function calls:
  3557 ;;		Nothing
  3558 ;; This function is called by:
  3559 ;;		_ISR_HIGH
  3560 ;; This function uses a non-reentrant model
  3561 ;;
  3562                           
  3563                           	psect	text37
  3564   0018E2                     __ptext37:
  3565                           	callstack 0
  3566   0018E2                     i2_INT1_ISR:
  3567                           	callstack 21
  3568   0018E2  0012               	return		;funcret
  3569   0018E4                     __end_ofi2_INT1_ISR:
  3570                           	callstack 0
  3571                           
  3572 ;; *************** function i2_ADC_INTERRUPT_ISR *****************
  3573 ;; Defined at:
  3574 ;;		line 166 in file "MCAL_LAYER/ADC/ADC.c"
  3575 ;; Parameters:    Size  Location     Type
  3576 ;;		None
  3577 ;; Auto vars:     Size  Location     Type
  3578 ;;		None
  3579 ;; Return value:  Size  Location     Type
  3580 ;;                  1    wreg      void 
  3581 ;; Registers used:
  3582 ;;		wreg, status,2, status,0
  3583 ;; Tracked objects:
  3584 ;;		On entry : 0/0
  3585 ;;		On exit  : 0/0
  3586 ;;		Unchanged: 0/0
  3587 ;; Data sizes:     COMRAM   BANK0   BANK1   BANK2   BANK3   BANK4   BANK5   BANK6   BANK7   BANK8   BANK9  BANK10  BANK1
      +1  BANK12  BANK13  BANK14  BANK15
  3588 ;;      Params:         0       0       0       0       0       0       0       0       0       0       0       0       
      +0       0       0       0       0
  3589 ;;      Locals:         0       0       0       0       0       0       0       0       0       0       0       0       
      +0       0       0       0       0
  3590 ;;      Temps:          0       0       0       0       0       0       0       0       0       0       0       0       
      +0       0       0       0       0
  3591 ;;      Totals:         0       0       0       0       0       0       0       0       0       0       0       0       
      +0       0       0       0       0
  3592 ;;Total ram usage:        0 bytes
  3593 ;; Hardware stack levels used: 1
  3594 ;; This function calls:
  3595 ;;		Nothing
  3596 ;; This function is called by:
  3597 ;;		_ISR_HIGH
  3598 ;; This function uses a non-reentrant model
  3599 ;;
  3600                           
  3601                           	psect	text38
  3602   0018E4                     __ptext38:
  3603                           	callstack 0
  3604   0018E4                     i2_ADC_INTERRUPT_ISR:
  3605                           	callstack 21
  3606   0018E4  0012               	return		;funcret
  3607   0018E6                     __end_ofi2_ADC_INTERRUPT_ISR:
  3608                           	callstack 0
  3609                           
  3610 ;; *************** function _INT0_ISR *****************
  3611 ;; Defined at:
  3612 ;;		line 431 in file "MCAL_LAYER/Interrupt/Interrupt_external.c"
  3613 ;; Parameters:    Size  Location     Type
  3614 ;;		None
  3615 ;; Auto vars:     Size  Location     Type
  3616 ;;		None
  3617 ;; Return value:  Size  Location     Type
  3618 ;;                  1    wreg      void 
  3619 ;; Registers used:
  3620 ;;		wreg, status,2, status,0
  3621 ;; Tracked objects:
  3622 ;;		On entry : 0/0
  3623 ;;		On exit  : 0/0
  3624 ;;		Unchanged: 0/0
  3625 ;; Data sizes:     COMRAM   BANK0   BANK1   BANK2   BANK3   BANK4   BANK5   BANK6   BANK7   BANK8   BANK9  BANK10  BANK1
      +1  BANK12  BANK13  BANK14  BANK15
  3626 ;;      Params:         0       0       0       0       0       0       0       0       0       0       0       0       
      +0       0       0       0       0
  3627 ;;      Locals:         0       0       0       0       0       0       0       0       0       0       0       0       
      +0       0       0       0       0
  3628 ;;      Temps:          0       0       0       0       0       0       0       0       0       0       0       0       
      +0       0       0       0       0
  3629 ;;      Totals:         0       0       0       0       0       0       0       0       0       0       0       0       
      +0       0       0       0       0
  3630 ;;Total ram usage:        0 bytes
  3631 ;; Hardware stack levels used: 1
  3632 ;; This function calls:
  3633 ;;		Nothing
  3634 ;; This function is called by:
  3635 ;;		_ISR_HIGH
  3636 ;; This function uses a non-reentrant model
  3637 ;;
  3638                           
  3639                           	psect	text39
  3640   0018E6                     __ptext39:
  3641                           	callstack 0
  3642   0018E6                     _INT0_ISR:
  3643                           	callstack 21
  3644   0018E6  0012               	return		;funcret
  3645   0018E8                     __end_of_INT0_ISR:
  3646                           	callstack 0
  3647                           
  3648                           	psect	rparam
  3649   000000                     
  3650                           	psect	temp
  3651   000077                     btemp:
  3652                           	callstack 0
  3653   000077                     	ds	1
  3654   000000                     int$flags	set	btemp
  3655   000000                     wtemp8	set	btemp+1
  3656   000000                     ttemp5	set	btemp+1
  3657   000000                     ttemp6	set	btemp+4
  3658   000000                     ttemp7	set	btemp+8
  3659                           
  3660                           	psect	config
  3661                           
  3662                           ; Padding undefined space
  3663   300000                     	org	3145728
  3664   300000  FF                 	db	255
  3665                           
  3666                           ;Config register CONFIG1H @ 0x300001
  3667                           ;	Oscillator Selection bits
  3668                           ;	OSC = RCIO6, External RC oscillator, port function on RA6
  3669                           ;	Fail-Safe Clock Monitor Enable bit
  3670                           ;	FCMEN = OFF, Fail-Safe Clock Monitor disabled
  3671                           ;	Internal/External Oscillator Switchover bit
  3672                           ;	IESO = OFF, Oscillator Switchover mode disabled
  3673   300001                     	org	3145729
  3674   300001  07                 	db	7
  3675                           
  3676                           ;Config register CONFIG2L @ 0x300002
  3677                           ;	Power-up Timer Enable bit
  3678                           ;	PWRT = OFF, PWRT disabled
  3679                           ;	Brown-out Reset Enable bits
  3680                           ;	BOREN = SBORDIS, Brown-out Reset enabled in hardware only (SBOREN is disabled)
  3681                           ;	Brown Out Reset Voltage bits
  3682                           ;	BORV = 3, Minimum setting
  3683   300002                     	org	3145730
  3684   300002  1F                 	db	31
  3685                           
  3686                           ;Config register CONFIG2H @ 0x300003
  3687                           ;	Watchdog Timer Enable bit
  3688                           ;	WDT = ON, WDT enabled
  3689                           ;	Watchdog Timer Postscale Select bits
  3690                           ;	WDTPS = 32768, 1:32768
  3691   300003                     	org	3145731
  3692   300003  1F                 	db	31
  3693                           
  3694                           ; Padding undefined space
  3695   300004                     	org	3145732
  3696   300004  FF                 	db	255
  3697                           
  3698                           ;Config register CONFIG3H @ 0x300005
  3699                           ;	CCP2 MUX bit
  3700                           ;	CCP2MX = PORTC, CCP2 input/output is multiplexed with RC1
  3701                           ;	PORTB A/D Enable bit
  3702                           ;	PBADEN = OFF, PORTB<4:0> pins are configured as digital I/O on Reset
  3703                           ;	Low-Power Timer1 Oscillator Enable bit
  3704                           ;	LPT1OSC = OFF, Timer1 configured for higher power operation
  3705                           ;	MCLR Pin Enable bit
  3706                           ;	MCLRE = ON, MCLR pin enabled; RE3 input pin disabled
  3707   300005                     	org	3145733
  3708   300005  81                 	db	129
  3709                           
  3710                           ;Config register CONFIG4L @ 0x300006
  3711                           ;	Stack Full/Underflow Reset Enable bit
  3712                           ;	STVREN = ON, Stack full/underflow will cause Reset
  3713                           ;	Single-Supply ICSP Enable bit
  3714                           ;	LVP = ON, Single-Supply ICSP enabled
  3715                           ;	Extended Instruction Set Enable bit
  3716                           ;	XINST = OFF, Instruction set extension and Indexed Addressing mode disabled (Legacy mo
      +                          de)
  3717                           ;	Background Debugger Enable bit
  3718                           ;	DEBUG = 0x1, unprogrammed default
  3719   300006                     	org	3145734
  3720   300006  85                 	db	133
  3721                           
  3722                           ; Padding undefined space
  3723   300007                     	org	3145735
  3724   300007  FF                 	db	255
  3725                           
  3726                           ;Config register CONFIG5L @ 0x300008
  3727                           ;	Code Protection bit
  3728                           ;	CP0 = OFF, Block 0 (000800-003FFFh) not code-protected
  3729                           ;	Code Protection bit
  3730                           ;	CP1 = OFF, Block 1 (004000-007FFFh) not code-protected
  3731                           ;	Code Protection bit
  3732                           ;	CP2 = OFF, Block 2 (008000-00BFFFh) not code-protected
  3733                           ;	Code Protection bit
  3734                           ;	CP3 = OFF, Block 3 (00C000-00FFFFh) not code-protected
  3735   300008                     	org	3145736
  3736   300008  0F                 	db	15
  3737                           
  3738                           ;Config register CONFIG5H @ 0x300009
  3739                           ;	Boot Block Code Protection bit
  3740                           ;	CPB = OFF, Boot block (000000-0007FFh) not code-protected
  3741                           ;	Data EEPROM Code Protection bit
  3742                           ;	CPD = OFF, Data EEPROM not code-protected
  3743   300009                     	org	3145737
  3744   300009  C0                 	db	192
  3745                           
  3746                           ;Config register CONFIG6L @ 0x30000A
  3747                           ;	Write Protection bit
  3748                           ;	WRT0 = OFF, Block 0 (000800-003FFFh) not write-protected
  3749                           ;	Write Protection bit
  3750                           ;	WRT1 = OFF, Block 1 (004000-007FFFh) not write-protected
  3751                           ;	Write Protection bit
  3752                           ;	WRT2 = OFF, Block 2 (008000-00BFFFh) not write-protected
  3753                           ;	Write Protection bit
  3754                           ;	WRT3 = OFF, Block 3 (00C000-00FFFFh) not write-protected
  3755   30000A                     	org	3145738
  3756   30000A  0F                 	db	15
  3757                           
  3758                           ;Config register CONFIG6H @ 0x30000B
  3759                           ;	Configuration Register Write Protection bit
  3760                           ;	WRTC = OFF, Configuration registers (300000-3000FFh) not write-protected
  3761                           ;	Boot Block Write Protection bit
  3762                           ;	WRTB = OFF, Boot Block (000000-0007FFh) not write-protected
  3763                           ;	Data EEPROM Write Protection bit
  3764                           ;	WRTD = OFF, Data EEPROM not write-protected
  3765   30000B                     	org	3145739
  3766   30000B  E0                 	db	224
  3767                           
  3768                           ;Config register CONFIG7L @ 0x30000C
  3769                           ;	Table Read Protection bit
  3770                           ;	EBTR0 = OFF, Block 0 (000800-003FFFh) not protected from table reads executed in other
      +                           blocks
  3771                           ;	Table Read Protection bit
  3772                           ;	EBTR1 = OFF, Block 1 (004000-007FFFh) not protected from table reads executed in other
      +                           blocks
  3773                           ;	Table Read Protection bit
  3774                           ;	EBTR2 = OFF, Block 2 (008000-00BFFFh) not protected from table reads executed in other
      +                           blocks
  3775                           ;	Table Read Protection bit
  3776                           ;	EBTR3 = OFF, Block 3 (00C000-00FFFFh) not protected from table reads executed in other
      +                           blocks
  3777   30000C                     	org	3145740
  3778   30000C  0F                 	db	15
  3779                           
  3780                           ;Config register CONFIG7H @ 0x30000D
  3781                           ;	Boot Block Table Read Protection bit
  3782                           ;	EBTRB = OFF, Boot Block (000000-0007FFh) not protected from table reads executed in ot
      +                          her blocks
  3783   30000D                     	org	3145741
  3784   30000D  40                 	db	64
  3785                           tosu	equ	0xFFF
  3786                           tosh	equ	0xFFE
  3787                           tosl	equ	0xFFD
  3788                           stkptr	equ	0xFFC
  3789                           pclatu	equ	0xFFB
  3790                           pclath	equ	0xFFA
  3791                           pcl	equ	0xFF9
  3792                           tblptru	equ	0xFF8
  3793                           tblptrh	equ	0xFF7
  3794                           tblptrl	equ	0xFF6
  3795                           tablat	equ	0xFF5
  3796                           prodh	equ	0xFF4
  3797                           prodl	equ	0xFF3
  3798                           indf0	equ	0xFEF
  3799                           postinc0	equ	0xFEE
  3800                           postdec0	equ	0xFED
  3801                           preinc0	equ	0xFEC
  3802                           plusw0	equ	0xFEB
  3803                           fsr0h	equ	0xFEA
  3804                           fsr0l	equ	0xFE9
  3805                           wreg	equ	0xFE8
  3806                           indf1	equ	0xFE7
  3807                           postinc1	equ	0xFE6
  3808                           postdec1	equ	0xFE5
  3809                           preinc1	equ	0xFE4
  3810                           plusw1	equ	0xFE3
  3811                           fsr1h	equ	0xFE2
  3812                           fsr1l	equ	0xFE1
  3813                           bsr	equ	0xFE0
  3814                           indf2	equ	0xFDF
  3815                           postinc2	equ	0xFDE
  3816                           postdec2	equ	0xFDD
  3817                           preinc2	equ	0xFDC
  3818                           plusw2	equ	0xFDB
  3819                           fsr2h	equ	0xFDA
  3820                           fsr2l	equ	0xFD9
  3821                           status	equ	0xFD8

Data Sizes:
    Strings     3
    Constant    0
    Data        47
    BSS         82
    Persistent  0
    Stack       0

Auto Spaces:
    Space          Size  Autos    Used
    COMRAM          126     16     118
    BANK0           128      4      31
    BANK1           256      0       0
    BANK2           256      0       0
    BANK3           256      0       0
    BANK4           256      0       0
    BANK5           256      0       0
    BANK6           256      0       0
    BANK7           256      0       0
    BANK8           256      0       0
    BANK9           256      0       0
    BANK10          256      0       0
    BANK11          256      0       0
    BANK12          256      0       0
    BANK13          256      0       0
    BANK14          256      0       0
    BANK15          128      0       0

Pointer List with Targets:

    ADC_GET_Result@adc$interrupt_handler	PTR FTN()void  size(2) Largest target is 0

    ADC_Init@adc$interrupt_handler	PTR FTN()void  size(2) Largest target is 0

    ADC_InterruptHandler	PTR FTN()void  size(2) Largest target is 1
		 -> NULL(), 

    ADC_StartConversion_Interrupt@adc$interrupt_handler	PTR FTN()void  size(2) Largest target is 0

    f$.$buffer	PTR unsigned char  size(2) Largest target is 0

    f$.$source	PTR const unsigned char  size(2) Largest target is 0

    gpio_pin_direction_initialize@ptr	PTR const struct . size(1) Largest target is 1
		 -> button_initialize@button(COMRAM[1]), Interrupt_INTx_Pin_Configure@pin(COMRAM[1]), Interrupt_RBx_Pin_Configure@pin(COMRAM[1]), led_initialize@led(BANK0[1]), 
		 -> motor_initialize@motor_pin1(COMRAM[1]), motor_initialize@motor_pin2(COMRAM[1]), relay_initialize@relay(COMRAM[1]), seven_segment_activation_pin_initialize@activate_pin(COMRAM[1]), 

    gpio_pin_initialize@ptr	PTR const struct . size(1) Largest target is 1
		 -> Interrupt_INTx_Pin_Configure@pin(COMRAM[1]), Interrupt_RBx_Pin_Configure@pin(COMRAM[1]), led_initialize@led(BANK0[1]), relay_initialize@relay(COMRAM[1]), 
		 -> seven_segment_activation_pin_initialize@activate_pin(COMRAM[1]), 

    gpio_pin_write@ptr	PTR const struct . size(1) Largest target is 1
		 -> Interrupt_INTx_Pin_Configure@pin(COMRAM[1]), Interrupt_RBx_Pin_Configure@pin(COMRAM[1]), led_initialize@led(BANK0[1]), led_turn_off@led(COMRAM[1]), 
		 -> led_turn_on@led(COMRAM[1]), motor_rotate_left@motor_pin1(COMRAM[1]), motor_rotate_left@motor_pin2(COMRAM[1]), motor_rotate_right@motor_pin1(COMRAM[1]), 
		 -> motor_rotate_right@motor_pin2(COMRAM[1]), motor_stop@motor_pin1(COMRAM[1]), motor_stop@motor_pin2(COMRAM[1]), relay_initialize@relay(COMRAM[1]), 
		 -> relay_turn_off@relay(COMRAM[1]), relay_turn_on@relay(COMRAM[1]), seven_segment_activate@activate_pin(COMRAM[1]), seven_segment_activation_pin_initialize@activate_pin(COMRAM[1]), 
		 -> seven_segment_deactivate@activate_pin(COMRAM[1]), 

    INT0_InterruptHandler	PTR FTN()void  size(2) Largest target is 1
		 -> NULL(), 

    INT1_InterruptHandler	PTR FTN()void  size(2) Largest target is 1
		 -> NULL(), 

    INT2_InterruptHandler	PTR FTN()void  size(2) Largest target is 1
		 -> NULL(), 

    Interrupt_INTx_Clear_Flag@int_obj$EXT_InterruptHandler	PTR FTN()void  size(2) Largest target is 0

    Interrupt_INTx_Disable@int_obj$EXT_InterruptHandler	PTR FTN()void  size(2) Largest target is 0

    Interrupt_INTx_Edge_Set@int_obj$EXT_InterruptHandler	PTR FTN()void  size(2) Largest target is 0

    Interrupt_INTx_Enable@int_obj$EXT_InterruptHandler	PTR FTN()void  size(2) Largest target is 0

    Interrupt_INTx_Handler_Set@int_obj$EXT_InterruptHandler	PTR FTN()void  size(2) Largest target is 0

    Interrupt_INTx_Pin_Configure@int_obj$EXT_InterruptHandler	PTR FTN()void  size(2) Largest target is 0

    Interrupt_INTx_Priority_Set@int_obj$EXT_InterruptHandler	PTR FTN()void  size(2) Largest target is 0

    Interrupt_RBx_Handler_Set@int_obj$EXT_InterruptHandler_HIGH	PTR FTN()void  size(2) Largest target is 0

    Interrupt_RBx_Handler_Set@int_obj$EXT_InterruptHandler_LOW	PTR FTN()void  size(2) Largest target is 0

    Interrupt_RBx_Init@int_obj$EXT_InterruptHandler_HIGH	PTR FTN()void  size(2) Largest target is 0

    Interrupt_RBx_Init@int_obj$EXT_InterruptHandler_LOW	PTR FTN()void  size(2) Largest target is 0

    Interrupt_RBx_Pin_Configure@int_obj$EXT_InterruptHandler_HIGH	PTR FTN()void  size(2) Largest target is 0

    Interrupt_RBx_Pin_Configure@int_obj$EXT_InterruptHandler_LOW	PTR FTN()void  size(2) Largest target is 0

    LAT_REG	PTR volatile unsigned char [5] size(2) Largest target is 1
		 -> LATA(BITBIGSFRllll[1]), LATB(BITBIGSFRlllh[1]), LATC(BITBIGSFRlllh[1]), LATD(BITBIGSFRlllh[1]), 
		 -> LATE(BITBIGSFRlllh[1]), 

    led_initialize@ptr	PTR const struct . size(1) Largest target is 1
		 -> led(COMRAM[1]), 

    PORT_REG	PTR volatile unsigned char [5] size(2) Largest target is 1
		 -> PORTA(BITBIGSFRllll[1]), PORTB(BITBIGSFRllll[1]), PORTC(BITBIGSFRllll[1]), PORTD(BITBIGSFRllll[1]), 
		 -> PORTE(BITBIGSFRllll[1]), 

    RBx4_InterruptHandler_HIGH	PTR FTN()void  size(2) Largest target is 1
		 -> NULL(), 

    RBx4_InterruptHandler_LOW	PTR FTN()void  size(2) Largest target is 1
		 -> NULL(), 

    RBx5_InterruptHandler_HIGH	PTR FTN()void  size(2) Largest target is 1
		 -> NULL(), 

    RBx5_InterruptHandler_LOW	PTR FTN()void  size(2) Largest target is 1
		 -> NULL(), 

    RBx6_InterruptHandler_HIGH	PTR FTN()void  size(2) Largest target is 1
		 -> NULL(), 

    RBx6_InterruptHandler_LOW	PTR FTN()void  size(2) Largest target is 1
		 -> NULL(), 

    RBx7_InterruptHandler_HIGH	PTR FTN()void  size(2) Largest target is 1
		 -> NULL(), 

    RBx7_InterruptHandler_LOW	PTR FTN()void  size(2) Largest target is 1
		 -> NULL(), 

    S1945$EXT_InterruptHandler	PTR FTN()void  size(2) Largest target is 0

    S2123$EXT_InterruptHandler_HIGH	PTR FTN()void  size(2) Largest target is 0

    S2123$EXT_InterruptHandler_LOW	PTR FTN()void  size(2) Largest target is 0

    S2282$interrupt_handler	PTR FTN()void  size(2) Largest target is 0

    S2461$interrupt_handler	PTR FTN()void  size(2) Largest target is 0

    S2715$interrupt_handler	PTR FTN()void  size(2) Largest target is 0

    S2908$interrupt_handler	PTR FTN()void  size(2) Largest target is 0

    S3643$buffer	PTR unsigned char  size(2) Largest target is 0

    S3643$source	PTR const unsigned char  size(2) Largest target is 0

    S920$interrupt_handler	PTR FTN()void  size(2) Largest target is 0

    sp__memset	PTR void  size(2) Largest target is 0

    TIMER0_Init@timer0$interrupt_handler	PTR FTN()void  size(2) Largest target is 0

    TIMER0_InterruptHandler	PTR FTN()void  size(2) Largest target is 1
		 -> NULL(), 

    TIMER1_Init@timer1$interrupt_handler	PTR FTN()void  size(2) Largest target is 0

    TIMER1_InterruptHandler	PTR FTN()void  size(2) Largest target is 1
		 -> NULL(), 

    TIMER2_Init@timer2$interrupt_handler	PTR FTN()void  size(2) Largest target is 0

    TIMER2_InterruptHandler	PTR FTN()void  size(2) Largest target is 1
		 -> NULL(), 

    TIMER3_Init@timer3$interrupt_handler	PTR FTN()void  size(2) Largest target is 0

    TIMER3_InterruptHandler	PTR FTN()void  size(2) Largest target is 1
		 -> NULL(), 

    TRIS_REG	PTR volatile unsigned char [5] size(2) Largest target is 1
		 -> TRISA(BITBIGSFRllll[1]), TRISB(ABS[1]), TRISC(ABS[1]), TRISD(ABS[1]), 
		 -> TRISE(ABS[1]), 

    vfprintf$0	PTR struct _IO_FILE size(1) Largest target is 12
		 -> sprintf@f(COMRAM[12]), 

    vfprintf$1	PTR const unsigned char  size(1) Largest target is 3
		 -> STR_1(CODE[3]), STR_2(CODE[3]), STR_3(CODE[3]), 

    vfprintf$2	PTR PTR void  size(1) Largest target is 1
		 -> sprintf@ap(COMRAM[1]), 


Critical Paths under _main in COMRAM

    _led_initialize->_gpio_pin_initialize
    _gpio_pin_initialize->_gpio_pin_write

Critical Paths under _ISR_LOW in COMRAM

    _ISR_LOW->_RB5_ISR
    _ISR_LOW->_RB6_ISR
    _TIMER3_INTERRUPT_ISR->_TIMER3_WRITE
    _TIMER2_INTERRUPT_ISR->_TIMER2_WRITE
    _TIMER1_INTERRUPT_ISR->_TIMER1_WRITE
    _TIMER0_INTERRUPT_ISR->_TIMER0_WRITE

Critical Paths under _ISR_HIGH in COMRAM

    _ISR_HIGH->i2_RB5_ISR
    _ISR_HIGH->i2_RB6_ISR
    i2_TIMER3_INTERRUPT_ISR->i2_TIMER3_WRITE
    i2_TIMER2_INTERRUPT_ISR->i2_TIMER2_WRITE
    i2_TIMER1_INTERRUPT_ISR->i2_TIMER1_WRITE
    i2_TIMER0_INTERRUPT_ISR->i2_TIMER0_WRITE

Critical Paths under _main in BANK0

    _ECU_layer_initialize->_led_initialize
    _led_initialize->_gpio_pin_initialize

Critical Paths under _ISR_LOW in BANK0

    None.

Critical Paths under _ISR_HIGH in BANK0

    None.

Critical Paths under _main in BANK1

    None.

Critical Paths under _ISR_LOW in BANK1

    None.

Critical Paths under _ISR_HIGH in BANK1

    None.

Critical Paths under _main in BANK2

    None.

Critical Paths under _ISR_LOW in BANK2

    None.

Critical Paths under _ISR_HIGH in BANK2

    None.

Critical Paths under _main in BANK3

    None.

Critical Paths under _ISR_LOW in BANK3

    None.

Critical Paths under _ISR_HIGH in BANK3

    None.

Critical Paths under _main in BANK4

    None.

Critical Paths under _ISR_LOW in BANK4

    None.

Critical Paths under _ISR_HIGH in BANK4

    None.

Critical Paths under _main in BANK5

    None.

Critical Paths under _ISR_LOW in BANK5

    None.

Critical Paths under _ISR_HIGH in BANK5

    None.

Critical Paths under _main in BANK6

    None.

Critical Paths under _ISR_LOW in BANK6

    None.

Critical Paths under _ISR_HIGH in BANK6

    None.

Critical Paths under _main in BANK7

    None.

Critical Paths under _ISR_LOW in BANK7

    None.

Critical Paths under _ISR_HIGH in BANK7

    None.

Critical Paths under _main in BANK8

    None.

Critical Paths under _ISR_LOW in BANK8

    None.

Critical Paths under _ISR_HIGH in BANK8

    None.

Critical Paths under _main in BANK9

    None.

Critical Paths under _ISR_LOW in BANK9

    None.

Critical Paths under _ISR_HIGH in BANK9

    None.

Critical Paths under _main in BANK10

    None.

Critical Paths under _ISR_LOW in BANK10

    None.

Critical Paths under _ISR_HIGH in BANK10

    None.

Critical Paths under _main in BANK11

    None.

Critical Paths under _ISR_LOW in BANK11

    None.

Critical Paths under _ISR_HIGH in BANK11

    None.

Critical Paths under _main in BANK12

    None.

Critical Paths under _ISR_LOW in BANK12

    None.

Critical Paths under _ISR_HIGH in BANK12

    None.

Critical Paths under _main in BANK13

    None.

Critical Paths under _ISR_LOW in BANK13

    None.

Critical Paths under _ISR_HIGH in BANK13

    None.

Critical Paths under _main in BANK14

    None.

Critical Paths under _ISR_LOW in BANK14

    None.

Critical Paths under _ISR_HIGH in BANK14

    None.

Critical Paths under _main in BANK15

    None.

Critical Paths under _ISR_LOW in BANK15

    None.

Critical Paths under _ISR_HIGH in BANK15

    None.

Call Graph Tables:

 ---------------------------------------------------------------------------------
 (Depth) Function   	        Calls       Base Space   Used Autos Params    Refs
 ---------------------------------------------------------------------------------
 (0) _main                                                 0     0      0    7795
             _application_initialize
 ---------------------------------------------------------------------------------
 (1) _application_initialize                               0     0      0    7795
               _ECU_layer_initialize
 ---------------------------------------------------------------------------------
 (2) _ECU_layer_initialize                                 0     0      0    7795
                     _led_initialize
 ---------------------------------------------------------------------------------
 (3) _led_initialize                                       4     3      1    7795
                                              1 BANK0      3     2      1
                _gpio_pin_initialize
 ---------------------------------------------------------------------------------
 (4) _gpio_pin_initialize                                  3     2      1    7418
                                             15 COMRAM     1     0      1
                                              0 BANK0      1     1      0
      _gpio_pin_direction_initialize
                     _gpio_pin_write
 ---------------------------------------------------------------------------------
 (5) _gpio_pin_write                                       8     6      2    4882
                                              8 COMRAM     7     5      2
 ---------------------------------------------------------------------------------
 (5) _gpio_pin_direction_initialize                        7     6      1     624
                                              8 COMRAM     6     5      1
 ---------------------------------------------------------------------------------
 Estimated maximum stack depth 5
 ---------------------------------------------------------------------------------
 (Depth) Function   	        Calls       Base Space   Used Autos Params    Refs
 ---------------------------------------------------------------------------------
 (6) _ISR_LOW                                              3     3      0     713
                                              5 COMRAM     3     3      0
                  _ADC_INTERRUPT_ISR
                           _INT1_ISR
                           _INT2_ISR
                            _RB4_ISR
                            _RB5_ISR
                            _RB6_ISR
                            _RB7_ISR
               _TIMER0_INTERRUPT_ISR
               _TIMER1_INTERRUPT_ISR
               _TIMER2_INTERRUPT_ISR
               _TIMER3_INTERRUPT_ISR
 ---------------------------------------------------------------------------------
 (7) _TIMER3_INTERRUPT_ISR                                 0     0      0     226
                       _TIMER3_WRITE
 ---------------------------------------------------------------------------------
 (8) _TIMER3_WRITE                                         3     1      2     226
                                              3 COMRAM     2     0      2
 ---------------------------------------------------------------------------------
 (7) _TIMER2_INTERRUPT_ISR                                 0     0      0      35
                       _TIMER2_WRITE
 ---------------------------------------------------------------------------------
 (8) _TIMER2_WRITE                                         2     2      0      35
                                              3 COMRAM     1     1      0
 ---------------------------------------------------------------------------------
 (7) _TIMER1_INTERRUPT_ISR                                 0     0      0     226
                       _TIMER1_WRITE
 ---------------------------------------------------------------------------------
 (8) _TIMER1_WRITE                                         3     1      2     226
                                              3 COMRAM     2     0      2
 ---------------------------------------------------------------------------------
 (7) _TIMER0_INTERRUPT_ISR                                 0     0      0     226
                       _TIMER0_WRITE
 ---------------------------------------------------------------------------------
 (8) _TIMER0_WRITE                                         3     1      2     226
                                              3 COMRAM     2     0      2
 ---------------------------------------------------------------------------------
 (7) _RB7_ISR                                              1     1      0       0
                                              3 COMRAM     1     1      0
 ---------------------------------------------------------------------------------
 (7) _RB6_ISR                                              2     2      0       0
                                              3 COMRAM     2     2      0
 ---------------------------------------------------------------------------------
 (7) _RB5_ISR                                              2     2      0       0
                                              3 COMRAM     2     2      0
 ---------------------------------------------------------------------------------
 (7) _RB4_ISR                                              1     1      0       0
                                              3 COMRAM     1     1      0
 ---------------------------------------------------------------------------------
 (7) _INT2_ISR                                             0     0      0       0
 ---------------------------------------------------------------------------------
 (7) _INT1_ISR                                             0     0      0       0
 ---------------------------------------------------------------------------------
 (7) _ADC_INTERRUPT_ISR                                    0     0      0       0
 ---------------------------------------------------------------------------------
 Estimated maximum stack depth 8
 ---------------------------------------------------------------------------------
 (Depth) Function   	        Calls       Base Space   Used Autos Params    Refs
 ---------------------------------------------------------------------------------
 (9) _ISR_HIGH                                             1     1      0     352
                                              2 COMRAM     1     1      0
                           _INT0_ISR
                i2_ADC_INTERRUPT_ISR
                         i2_INT1_ISR
                         i2_INT2_ISR
                          i2_RB4_ISR
                          i2_RB5_ISR
                          i2_RB6_ISR
                          i2_RB7_ISR
             i2_TIMER0_INTERRUPT_ISR
             i2_TIMER1_INTERRUPT_ISR
             i2_TIMER2_INTERRUPT_ISR
             i2_TIMER3_INTERRUPT_ISR
 ---------------------------------------------------------------------------------
 (10) i2_TIMER3_INTERRUPT_ISR                              0     0      0     100
                     i2_TIMER3_WRITE
 ---------------------------------------------------------------------------------
 (11) i2_TIMER3_WRITE                                      3     1      2     100
                                              0 COMRAM     2     0      2
 ---------------------------------------------------------------------------------
 (10) i2_TIMER2_INTERRUPT_ISR                              0     0      0      52
                     i2_TIMER2_WRITE
 ---------------------------------------------------------------------------------
 (11) i2_TIMER2_WRITE                                      2     2      0      52
                                              0 COMRAM     1     1      0
 ---------------------------------------------------------------------------------
 (10) i2_TIMER1_INTERRUPT_ISR                              0     0      0     100
                     i2_TIMER1_WRITE
 ---------------------------------------------------------------------------------
 (11) i2_TIMER1_WRITE                                      3     1      2     100
                                              0 COMRAM     2     0      2
 ---------------------------------------------------------------------------------
 (10) i2_TIMER0_INTERRUPT_ISR                              0     0      0     100
                     i2_TIMER0_WRITE
 ---------------------------------------------------------------------------------
 (11) i2_TIMER0_WRITE                                      3     1      2     100
                                              0 COMRAM     2     0      2
 ---------------------------------------------------------------------------------
 (10) i2_RB7_ISR                                           1     1      0       0
                                              0 COMRAM     1     1      0
 ---------------------------------------------------------------------------------
 (10) i2_RB6_ISR                                           2     2      0       0
                                              0 COMRAM     2     2      0
 ---------------------------------------------------------------------------------
 (10) i2_RB5_ISR                                           2     2      0       0
                                              0 COMRAM     2     2      0
 ---------------------------------------------------------------------------------
 (10) i2_RB4_ISR                                           1     1      0       0
                                              0 COMRAM     1     1      0
 ---------------------------------------------------------------------------------
 (10) i2_INT2_ISR                                          0     0      0       0
 ---------------------------------------------------------------------------------
 (10) i2_INT1_ISR                                          0     0      0       0
 ---------------------------------------------------------------------------------
 (10) i2_ADC_INTERRUPT_ISR                                 0     0      0       0
 ---------------------------------------------------------------------------------
 (10) _INT0_ISR                                            0     0      0       0
 ---------------------------------------------------------------------------------
 Estimated maximum stack depth 11
 ---------------------------------------------------------------------------------

 Call Graph Graphs:

 _main (ROOT)
   _application_initialize
     _ECU_layer_initialize
       _led_initialize
         _gpio_pin_initialize
           _gpio_pin_direction_initialize
           _gpio_pin_write

 _ISR_LOW (ROOT)
   _ADC_INTERRUPT_ISR
   _INT1_ISR
   _INT2_ISR
   _RB4_ISR
   _RB5_ISR
   _RB6_ISR
   _RB7_ISR
   _TIMER0_INTERRUPT_ISR
     _TIMER0_WRITE
   _TIMER1_INTERRUPT_ISR
     _TIMER1_WRITE
   _TIMER2_INTERRUPT_ISR
     _TIMER2_WRITE
   _TIMER3_INTERRUPT_ISR
     _TIMER3_WRITE

 _ISR_HIGH (ROOT)
   _INT0_ISR
   i2_ADC_INTERRUPT_ISR
   i2_INT1_ISR
   i2_INT2_ISR
   i2_RB4_ISR
   i2_RB5_ISR
   i2_RB6_ISR
   i2_RB7_ISR
   i2_TIMER0_INTERRUPT_ISR
     i2_TIMER0_WRITE
   i2_TIMER1_INTERRUPT_ISR
     i2_TIMER1_WRITE
   i2_TIMER2_INTERRUPT_ISR
     i2_TIMER2_WRITE
   i2_TIMER3_INTERRUPT_ISR
     i2_TIMER3_WRITE

 Address spaces:
Name               Size   Autos  Total    Cost      Usage
BIGRAM             F7F      0       0      48        0.0%
EEDATA             400      0       0       0        0.0%
BITBANK14          100      0       0      32        0.0%
BANK14             100      0       0      33        0.0%
BITBANK13          100      0       0      30        0.0%
BANK13             100      0       0      31        0.0%
BITBANK12          100      0       0      28        0.0%
BANK12             100      0       0      29        0.0%
BITBANK11          100      0       0      26        0.0%
BANK11             100      0       0      27        0.0%
BITBANK10          100      0       0      24        0.0%
BANK10             100      0       0      25        0.0%
BITBANK9           100      0       0      22        0.0%
BANK9              100      0       0      23        0.0%
BITBANK8           100      0       0      20        0.0%
BANK8              100      0       0      21        0.0%
BITBANK7           100      0       0      18        0.0%
BANK7              100      0       0      19        0.0%
BITBANK6           100      0       0      16        0.0%
BANK6              100      0       0      17        0.0%
BITBANK5           100      0       0      14        0.0%
BANK5              100      0       0      15        0.0%
BITBANK4           100      0       0      12        0.0%
BANK4              100      0       0      13        0.0%
BITBANK3           100      0       0      10        0.0%
BANK3              100      0       0      11        0.0%
BITBANK2           100      0       0       8        0.0%
BANK2              100      0       0       9        0.0%
BITBANK1           100      0       0       6        0.0%
BANK1              100      0       0       7        0.0%
BITBANK15           80      0       0      34        0.0%
BANK15              80      0       0      35        0.0%
BITBANK0            80      0       0       4        0.0%
BANK0               80      4      1F       5       24.2%
BITCOMRAM           7E      0       0       0        0.0%
COMRAM              7E     10      76       1       93.7%
BITBIGSFRhhllhh     18      0       0      37        0.0%
BITBIGSFRhhh         D      0       0      36        0.0%
BITBIGSFRlhhhh       C      0       0      41        0.0%
BITBIGSFRlhhl        6      0       0      42        0.0%
BITBIGSFRllhh        6      0       0      44        0.0%
BITBIGSFRhlhll       5      0       0      40        0.0%
BITBIGSFRlllh        4      0       0      45        0.0%
BITBIGSFRhhlll       4      0       0      38        0.0%
BITBIGSFRllll        4      0       0      46        0.0%
BITBIGSFRlhll        3      0       0      43        0.0%
BITBIGSFRhlhlh       1      0       0      39        0.0%
BIGSFR               0      0       0     200        0.0%
BITSFR               0      0       0     200        0.0%
SFR                  0      0       0     200        0.0%
STACK                0      0       0       2        0.0%
NULL                 0      0       0       0        0.0%
ABS                  0      0      95      47        0.0%
DATA                 0      0      95       3        0.0%
CODE                 0      0       0       0        0.0%


Microchip Technology PIC18 Macro Assembler V2.45 build 20230818022343 
Symbol Table                                                                                   Sat Aug 31 23:01:18 2024

                            TIMER2_WRITE@data 006A                                            bsr 0FE0  
                                         l437 18BA                                           l294 1492  
                                         l288 143E                                           l643 132A  
                                         l657 13F2                                           l678 1504  
                                         _led 0066                           led_initialize@F3058 003F  
                                         wreg 0FE8                         relay_initialize@F3058 0039  
                            TIMER3_WRITE@data 006A                               __end_of_RB4_ISR 1682  
                             __end_of_RB5_ISR 15DC                               __end_of_RB6_ISR 15A2  
                             __end_of_RB7_ISR 16E4                        __end_ofi2_TIMER0_WRITE 1894  
                                        l1233 18D8                                          l1227 18A8  
                                        l1228 18A8                                          l5730 13A0  
                                        l5722 132C                                          l5740 1242  
                                        l5732 13F2                                          l5724 133C  
                                        l5750 12D8                                          l5742 1260  
                                        l5726 1340                                          l5752 132A  
                                        l5744 1270                                          l5736 1224  
                                        l5728 1350                                          l5760 14B4  
                                        l5746 1274                                          l5738 1224  
                                        l5762 14D2                                          l6714 18A4  
                      __end_ofi2_TIMER1_WRITE 1882                                          l5748 1288  
                                        l5764 14E2                                          l5756 1494  
                                        l5780 143A                                          l5772 13F4  
                                        l5766 14E6                                          l5758 1494  
                                        l5790 148A                                          l5782 1442  
                                        l5774 13F4                                          l5862 18B0  
                                        l5950 18D4                                          l5768 1504  
                                        l5784 1454                                          l5776 1410  
                                        l5786 1456                                          l5778 142A  
                                        l5788 1470                                          STR_1 1001  
                      __end_ofi2_TIMER2_WRITE 18D4                                          _LATA 0F89  
                                        _LATB 0F8A                                          _LATC 0F8B  
                                        _LATD 0F8C                                          _LATE 0F8D  
                                        u5300 1288                                          u5301 1284  
                                        u5230 133C                                          u5231 1338  
                                        u5240 1350                                          u5241 134C  
                                        u5314 12A4                                          u5330 14B4  
                                        u5315 12A0                                          u5331 14B0  
                                        u5324 12F4                                          u5340 14D2  
                                        u5325 12F0                                          u5341 14CE  
                                        u5270 1242                                          u5254 136C  
                                        u5350 14E2                                          u5271 123E  
                                        u5255 1368                                          u5351 14DE  
                                        u5280 1260                                          u5264 13BC  
                                        u5360 1410                                          u5281 125C  
                                        u5265 13B8                                          u5361 140C  
                                        u5290 1270                                          u5370 142A  
                      __end_ofi2_TIMER3_WRITE 1870                                          u5291 126C  
                                        u5371 1426                                          u5380 143A  
                                        u5381 1436                                          u5395 1450  
                                        u5397 1454                                          _TMR2 0FCC  
                             __end_of_ISR_LOW 0228                          _TIMER3_INTERRUPT_ISR 1714  
                                        _main 18A4                                   ?i2_INT1_ISR 0067  
                                 ?i2_INT2_ISR 0067                                          fsr2h 0FDA  
                                        indf2 0FDF                                          fsr1l 0FE1  
                                        fsr2l 0FD9                                          btemp 0077  
                      __end_of_led_initialize 1494                                          prodl 0FF3  
                                        start 0228                                  ___param_bank 0000  
                __end_of_TIMER0_INTERRUPT_ISR 1774                        button_initialize@F3059 003B  
                            __end_of_INT0_ISR 18E8                              __end_of_INT1_ISR 18DE  
                            __end_of_INT2_ISR 18DC                                         ?_main 0067  
                    ??_application_initialize 0077                        motor_rotate_left@F3075 0043  
                      motor_rotate_left@F3077 0042                             gpio_pin_write@ptr 006F  
                                       _EEADR 0FA9                                         i1l538 18DE  
                                       i1l756 0126                                         i1l765 0218  
                                       i1l960 18DA                                         i2l538 18E4  
                                       i1l956 18DC                                         i2l736 111E  
                                       i1l968 1680                                         i1l976 15DA  
                                       i1l984 15A0                                         i1l992 16E2  
                                       i2l745 1220                           i2_ADC_INTERRUPT_ISR 18E4  
                                       i2l952 18E6                                         i2l960 18E0  
                                       i2l956 18E2                                         i2l968 16B2  
                                       i2l976 164E                                         i2l984 1614  
                                       i2l992 1712                           relay_turn_off@F3068 0037  
                     ?i2_TIMER0_INTERRUPT_ISR 0067                                         _TMR0H 0FD7  
                                       _TMR1H 0FCF                                         _TMR0L 0FD6  
                                       _TMR1L 0FCE                                         _TMR3H 0FB3  
                            __end_of_ISR_HIGH 1224                                         _TMR3L 0FB2  
                                       _PORTA 0F80                                         _PORTB 0F81  
                                       _PORTC 0F82                                         _PORTD 0F83  
                                       _PORTE 0F84                                         _TRISA 0F92  
                                       _TRISB 0F93                                         _TRISC 0F94  
                                       _TRISD 0F95                                         _TRISE 0F96  
                      i2_TIMER1_INTERRUPT_ISR 1794                               ?i2_TIMER0_WRITE 0067  
                             ?i2_TIMER1_WRITE 0067                               ?i2_TIMER2_WRITE 0067  
                             ?i2_TIMER3_WRITE 0067                                         tablat 0FF5  
                       ?_TIMER3_INTERRUPT_ISR 0067                                         ttemp5 0078  
                                       ttemp6 007B                                         ttemp7 007F  
                                       status 0FD8                                         wtemp8 0078  
                             ?_led_initialize 009C                          ?i2_ADC_INTERRUPT_ISR 0067  
                   _RBx5_InterruptHandler_LOW 0021                ?_gpio_pin_direction_initialize 006F  
                             __initialization 1506                                  __end_of_main 18B0  
                    ??i2_TIMER2_INTERRUPT_ISR 0068                __end_ofi2_TIMER0_INTERRUPT_ISR 17D4  
                                      ??_main 0077                                 __activetblptr 0003  
                            led_turn_on@F3063 003E                                     ??_RB4_ISR 006A  
                                   ??_RB5_ISR 006A                                     ??_RB6_ISR 006A  
                                   ??_RB7_ISR 006A                                     ??_ISR_LOW 006C  
                                      _ADRESH 0FC4                                        _EEADRH 0FAA  
                                      _ADRESL 0FC3                                        _EEDATA 0FA8  
                                      _EECON2 0FA7                  _TIMER2_preload_value_default 0031  
                                      i1l1106 1752                                        i1l1205 1838  
                                      i1l1214 1732                                        i1l1039 185C  
                                      i1l1048 1772                                        i1l1145 18C6  
                                      i1l1154 180C                                        i1l1097 184A  
                                      i1l2250 18DE                                        i1l2306 17F4  
                                      i1l2260 1668                                        i1l2308 1806  
                                      i1l2254 18DC                                        i1l2270 15C2  
                                      i1l2094 18BE                                        i1l2256 18DA  
                                      i1l2264 167E                                        i1l2280 1588  
                                      i1l2258 1650                                        i1l2274 15D8  
                                      i1l2290 16CA                                        i1l2098 18BE  
                                      i1l2268 15A2                                        i1l2284 159E  
                                      i1l2278 1568                                        i1l2294 16E0  
                                      i1l4310 1830                                        i1l4302 1828  
                                      i1l2288 16B4                                        i2l1106 17B2  
                                      i1l4306 1828                                        i1l4308 182C  
                                      i2l1205 186E                                        i2l1214 1792  
                                      i2l1039 1892                                        i2l1048 17D2  
                                      i2l1145 18D2                                        i2l1154 1826  
                                      i1l4282 184C                                        i1l4450 1766  
                                      i1l4290 183A                                        i1l5410 0034  
                                      i1l4284 1850                                        i1l4452 1734  
                                      i1l5500 01DE                                        i1l5420 0058  
                                      i1l5412 0042                                        i1l4286 1854  
                                      i1l4278 184C                                        i1l4294 183A  
                                      i1l4454 1746                                        i1l5510 0202  
                                      i1l5502 01E0                                        i1l5430 0088  
                                      i1l5422 0066                                        i1l5414 0050  
                                      i2l2320 18E0                                        i1l4448 1754  
                                      i1l4296 183E                                        i1l4456 1714  
                                      i1l5512 0210                                        i1l5504 01E4  
                                      i1l5440 00B6                                        i1l5432 008A  
                                      i1l5424 0074                                        i1l5416 0052  
                                      i1l5408 0026                                        i2l1097 1880  
                                      i2l2322 1682                                        i1l4298 1842  
                                      i1l4458 1726                                        i1l5514 0212  
                                      i1l5506 01E6                                        i1l5450 0102  
                                      i1l5442 00CA                                        i1l5434 0098  
                                      i1l5426 0082                                        i1l5418 0056  
                                      i2l2252 18E6                                        i2l2316 18E4  
                                      i2l2324 169A                                        i2l2332 1616  
                                      i1l5516 0216                                        i1l5508 01F4  
                                      i1l5452 010A                                        i1l5444 00D2  
                                      i1l5436 00A6                                        i1l5460 012C  
                                      i1l5428 0084                                        i2l2318 18E2  
                                      i2l2334 1636                                        i2l2342 15DC  
                                      i1l5462 013A                                        i1l5470 0150  
                                      i1l5454 011E                                        i1l5446 00E6  
                                      i1l5438 00B4                                        i2l2328 16B0  
                                      i2l2344 15FC                                        i2l2352 16E4  
                                      i1l5480 0180                                        i1l5472 015E  
                                      i1l5464 0148                                        i1l5448 00EE  
                                      i1l5456 0126                                        i2l2338 164C  
                                      i2l2354 16FA                                        i1l5490 01AE  
                                      i1l5474 016C                                        i1l5482 0182  
                                      i1l5466 014A                                        i1l5458 0128  
                                      i2l2348 1612                                        i1l5492 01B2  
                                      i1l5484 0190                                        i1l5476 017A  
                                      i1l5468 014E                                        i2l2358 1710  
                                      i1l5486 019E                                        i1l5494 01B4  
                                      i1l5478 017C                             __end_ofi2_RB4_ISR 16B4  
                                      i2l4320 1886                                        i1l5496 01C2  
                                      i1l5488 01AC                                        i2l4322 188A  
                                      i2l4314 1882                                        i2l4330 1870  
                                      i1l5498 01D0                                        i2l4332 1874  
                                      i2l5300 103A                                        i2l4318 1882  
                                      i2l4334 1878                                        i2l4326 1870  
                                      i2l4342 18CA                                        i2l4350 185E  
                                      i2l5302 1048                                        i2l5310 105E  
                                      i2l4352 1862                                        i2l5400 120A  
                                      i2l5320 108E                                        i2l5312 106C  
                                      i2l5304 1056                                        i2l4338 18CA  
                                      i2l4354 1866                                        i2l4346 185E  
                                      i2l5402 1218                                        i2l5330 10C2  
                                      i2l5314 107A                                        i2l5322 1090  
                                      i2l5306 1058                                        i2l5404 121A  
                                      i2l5340 1102                                        i2l5332 10CA  
                                      i2l5324 109E                                        i2l5316 1088  
                                      i2l5308 105C                                        i2l4462 17B4  
                                      i2l4470 180E                                        i2l5406 121E  
                                      i2l5350 1134                                        i2l5342 1116  
                                      i2l5334 10DE                                        i2l5326 10AC  
                                      i2l5318 108A                             __end_ofi2_RB5_ISR 1650  
                                      i2l4464 17C6                                        i2l4472 1820  
                                      i2l5352 1142                                        i2l5360 1158  
                                      i2l5336 10E6                                        i2l5344 111E  
                                      i2l5328 10AE                                        i2l4466 1794  
                                      i2l4474 1774                                        i2l5370 1188  
                                      i2l5362 1166                                        i2l5354 1150  
                                      i2l5346 1120                                        i2l5338 10FA  
                                      i2l5290 1016                                        i2l4468 17A6  
                                      i2l4476 1786                                        i2l5380 11B6  
                                      i2l5364 1174                                        i2l5372 118A  
                                      i2l5356 1152                                        i2l5348 1126  
                                      i2l5292 1024                                        i2l5390 11E6  
                                      i2l5382 11BA                                        i2l5374 1198  
                                      i2l5366 1182                                        i2l5358 1156  
                                      i2l5294 1026                                        i2l5392 11E8  
                                      i2l5376 11A6                                        i2l5384 11BC  
                                      i2l5368 1184                                        i2l5296 102A  
                                      i2l5288 1008                                        i2l5394 11EC  
                                      i2l5386 11CA                                        i2l5378 11B4  
                                      i2l5298 102C                                        i2l5388 11D8  
                                      i2l5396 11EE                                        i2l5398 11FC  
                           __end_ofi2_RB6_ISR 1616                             __end_ofi2_RB7_ISR 1714  
                     _TIMER0_InterruptHandler 0017                         ??i2_ADC_INTERRUPT_ISR 0067  
                                      _matrix 0080                                        clear_0 154C  
                                      clear_1 1558                                        isa$std 0001  
                                __pdataCOMRAM 0048                                  __mediumconst 0000  
                                      tblptrh 0FF7                                        tblptrl 0FF6  
                                      tblptru 0FF8                          _TIMER0_INTERRUPT_ISR 1754  
seven_segment_activation_pin_initialize@F3080 0033                    _RBx5_InterruptHandler_HIGH 0023  
                      ??_TIMER3_INTERRUPT_ISR 006C                                    __accesstop 0080  
                     __end_of__initialization 155E                                     ?_INT0_ISR 0067  
                                   ?_INT1_ISR 0067                                     ?_INT2_ISR 0067  
                               ___rparam_used 0001                             led_initialize@led 009E  
                           led_initialize@ptr 009C                                     ?_ISR_HIGH 0067  
                              __pcstackCOMRAM 0067                  __end_of_ECU_layer_initialize 18BC  
                                __pidataBANK0 1894                            i2TIMER0_WRITE@data 0067  
                            button_read@F3065 003A                         ?_TIMER0_INTERRUPT_ISR 0067  
                               ?_TIMER0_WRITE 006A                                 ?_TIMER1_WRITE 006A  
                               ?_TIMER2_WRITE 0067                                 ?_TIMER3_WRITE 006A  
                                  __pbssBANK0 0090                                  ??i2_INT1_ISR 0067  
                       _INT0_InterruptHandler 002D                                    ??_INT0_ISR 0067  
                                ??i2_INT2_ISR 0067                                    ??_INT1_ISR 006A  
                                  ??_INT2_ISR 006A                        _application_initialize 18D4  
                          i2TIMER1_WRITE@data 0067                                    ??_ISR_HIGH 0069  
                __end_of_TIMER1_INTERRUPT_ISR 1754                             led_turn_off@F3068 003D  
                     motor_rotate_right@F3070 0044                       motor_rotate_right@F3068 0045  
                         gpio_pin_write@logic 0070                               led_toggle@F3073 003C  
                     _TIMER1_InterruptHandler 0013                            i2TIMER2_WRITE@data 0067  
                                     _RB4_ISR 1650                                       _RB5_ISR 15A2  
                                     _RB6_ISR 1568                                       _RB7_ISR 16B4  
                                     _LAT_REG 0052                            __end_ofi2_INT1_ISR 18E4  
                          __end_ofi2_INT2_ISR 18E2                              ??i2_TIMER0_WRITE 0069  
                            ??i2_TIMER1_WRITE 0069                       ?i2_TIMER1_INTERRUPT_ISR 0067  
                            ??i2_TIMER2_WRITE 0067                              ??i2_TIMER3_WRITE 0069  
                                     i1u40_20 15D4                                       i1u40_21 15D0  
                                     i1u41_25 1570                                       i1u42_20 1588  
                                     i1u42_21 1584                                       i1u43_20 159A  
                                     i1u43_21 1596                                       i1u36_20 1668  
                                     i1u36_21 1664                                       i1u44_25 16BC  
                                     i1u37_20 167A                                       i1u45_20 16CA  
                                     i1u37_21 1676                                       i1u45_21 16C6  
                                     _ISR_LOW 0018                                       i1u46_20 16DC  
                                     i1u46_21 16D8                                       i1u38_25 15AA  
                                     i1u39_20 15C2                                       i1u39_21 15BE  
                                     i1u49_20 1806                                       i1u49_21 1802  
                                     i2u51_40 169A                                       i2u51_41 1696  
                                     i2u52_40 16AC                                       i2u60_40 16FA  
                                     i2u52_41 16A8                                       i2u60_41 16F6  
                                     i2u61_40 170C                                       i2u61_41 1708  
                                     i2u53_45 161E                                       i2u54_40 1636  
                                     i2u54_41 1632                                       i2u55_40 1648  
                                     i2u55_41 1644                                       i2u56_45 15E4  
                                     i2u57_40 15FC                                       i2u57_41 15F8  
                                     i2u58_40 160E                                       i2u58_41 160A  
                              ??_TIMER0_WRITE 006C                                       i2u59_45 16EC  
                              ??_TIMER1_WRITE 006C                                ??_TIMER2_WRITE 006A  
                              ??_TIMER3_WRITE 006C                              ??_led_initialize 009D  
                      i2_TIMER2_INTERRUPT_ISR 180E                            i2TIMER3_WRITE@data 0067  
                           _ADC_INTERRUPT_ISR 18DE                          _ADC_InterruptHandler 002F  
                                     __Hparam 0000                                       __Lparam 0000  
                          ?_ADC_INTERRUPT_ISR 0067                           _gpio_pin_initialize 1494  
               seven_segment_deactivate@F3074 0034                                  __psmallconst 1000  
                                     __pcinit 1506                           ??_ADC_INTERRUPT_ISR 006A  
                    ??i2_TIMER3_INTERRUPT_ISR 0069                                       __ramtop 1000  
                                     __ptext0 18A4                                       __ptext1 18D4  
                                     __ptext2 18B0                                       __ptext3 13F4  
                                     __ptext4 1494                                       __ptext5 132C  
                                     __ptext6 1224                                       __ptext8 1714  
                                     __ptext9 1828                                     _T0CONbits 0FD5  
                              _gpio_pin_write 132C                __end_ofi2_TIMER1_INTERRUPT_ISR 17B4  
                                   _T1CONbits 0FCD               ??_gpio_pin_direction_initialize 0070  
                                   _T2CONbits 0FCA                                     _T3CONbits 0FB1  
                      ??_TIMER0_INTERRUPT_ISR 006C                          ?_gpio_pin_initialize 0076  
                        _ECU_layer_initialize 18B0                                __pintcode_body 1006  
                        end_of_initialization 155E                     __end_of_ADC_INTERRUPT_ISR 18E0  
                                     int_func 1006                     _RBx4_InterruptHandler_LOW 0025  
                   _RBx7_InterruptHandler_LOW 0019                                     i2_RB4_ISR 1682  
                                   i2_RB5_ISR 1616                                     i2_RB6_ISR 15DC  
                                   i2_RB7_ISR 16E4                                       postdec1 0FE5  
                                     postdec2 0FDD                                       postinc0 0FEE  
                                     postinc2 0FDE                        __end_of_gpio_pin_write 13F4  
                       _INT1_InterruptHandler 002B                                    _portb_prev 0032  
                       ??_gpio_pin_initialize 009B                         ?_ECU_layer_initialize 0067  
                _TIMER0_preload_value_default 0015                   __end_ofi2_ADC_INTERRUPT_ISR 18E6  
                _TIMER3_preload_value_default 000B                          _TIMER1_INTERRUPT_ISR 1734  
                     _TIMER2_InterruptHandler 000F                                    ?i2_RB4_ISR 0067  
                                  ?i2_RB5_ISR 0067                                    ?i2_RB6_ISR 0067  
                                  ?i2_RB7_ISR 0067                            relay_turn_on@F3063 0038  
                           relay_toggle@F3073 0036                          __end_of_TIMER0_WRITE 185E  
                        __end_of_TIMER1_WRITE 184C                          __end_of_TIMER2_WRITE 18C8  
                        __end_of_TIMER3_WRITE 183A                                 __pidataCOMRAM 17D4  
                             ?_gpio_pin_write 006F                           start_initialization 1506  
       __end_of_gpio_pin_direction_initialize 132C                 _gpio_pin_direction_initialize 1224  
                       ?_TIMER1_INTERRUPT_ISR 0067                       ?_application_initialize 0067  
                  _RBx6_InterruptHandler_HIGH 001F                      ??i2_TIMER0_INTERRUPT_ISR 0069  
                __end_of_TIMER2_INTERRUPT_ISR 180E                                   __pdataBANK0 0080  
               convert_32_bit_to_string@F3245 0090                 convert_16_bit_to_string@F3238 0001  
                                    ?_RB4_ISR 0067                                      ?_RB5_ISR 0067  
                                    ?_RB6_ISR 0067                                      ?_RB7_ISR 0067  
                                 __pbssCOMRAM 0001                        ??_ECU_layer_initialize 0077  
                               __pcstackBANK0 009B                                      ?_ISR_LOW 0067  
                     ?i2_TIMER2_INTERRUPT_ISR 0067                __end_of_application_initialize 18DA  
                      i2_TIMER3_INTERRUPT_ISR 1774                         _INT2_InterruptHandler 0029  
                                 ??i2_RB4_ISR 0067                                   ??i2_RB5_ISR 0067  
                                 ??i2_RB6_ISR 0067                                   ??i2_RB7_ISR 0067  
                                   __pintcode 0008                                   __pintcodelo 0018  
                             motor_stop@F3082 0041                               motor_stop@F3084 0040  
                     _TIMER3_InterruptHandler 000D                                   __smallconst 1000  
              __end_ofi2_TIMER2_INTERRUPT_ISR 1828                        ??_TIMER1_INTERRUPT_ISR 006C  
                                    _INT0_ISR 18E6                                      _INT1_ISR 18DC  
                                    _INT2_ISR 18DA                                      _IPR1bits 0F9F  
                                    _IPR2bits 0FA2                                      _PIE1bits 0F9D  
                                    _PIE2bits 0FA0                                      i1u340_20 1746  
                                    i1u500_20 01F4                                      i1u340_21 1742  
                                    i1u500_21 01F0                                      i1u341_20 1726  
                                    i1u501_20 0202                                      i1u341_21 1722  
                                    i1u501_21 01FE                                      i1u502_20 0210  
                                    i1u502_21 020C                                      i1u339_20 1766  
                                    i1u339_21 1762                                      i1u480_20 0074  
                                    i1u480_21 0070                                      i1u481_20 0082  
                                    i1u481_21 007E                                      i1u490_20 0148  
                                    i1u482_20 0098                                      i1u490_21 0144  
                                    i1u482_21 0094                                      i1u491_20 015E  
                                    i1u483_20 00A6                                      i1u491_21 015A  
                                    i1u483_21 00A2                                      i1u492_20 016C  
                                    i1u484_20 00B4                                      i1u476_20 0034  
                                    i1u492_21 0168                                      i1u484_21 00B0  
                                    i1u476_21 0030                                      i1u493_20 017A  
                                    i1u485_20 00CA                                      i1u477_20 0042  
                                    i1u493_21 0176                                      i1u485_21 00C6  
                                    i1u477_21 003E                                      i1u494_20 0190  
                                    i1u486_20 00E6                                      i1u478_20 0050  
                                    i1u494_21 018C                                      i1u486_21 00E2  
                                    i1u478_21 004C                                      i2u342_40 17C6  
                                    i2u342_41 17C2                                      i1u495_20 019E  
                                    i1u487_20 0102                                      i1u479_20 0066  
                                    i1u495_21 019A                                      i1u487_21 00FE  
                                    i1u479_21 0062                                      i2u343_40 17A6  
                                    i2u343_41 17A2                                      i1u496_20 01AC  
                                    i1u488_20 011E                                      i1u496_21 01A8  
                                    i1u488_21 011A                                      i2u344_40 1820  
                                    i2u344_41 181C                                      i1u497_20 01C2  
                                    i1u489_20 013A                                      i1u497_21 01BE  
                                    i1u489_21 0136                                      i2u345_40 1786  
                                    i2u345_41 1782                                      _PIR1bits 0F9E  
                                    i1u498_20 01D0                                      i1u498_21 01CC  
                                    i2u450_40 1048                                      i2u450_41 1044  
                                    i1u499_20 01DE                                      i1u499_21 01DA  
                                    _ISR_HIGH 0008                                      i2u451_40 1056  
                                    i2u451_41 1052                                      _PIR2bits 0FA1  
                                    i2u460_40 1116                                      i2u452_40 106C  
                                    i2u460_41 1112                                      i2u452_41 1068  
                                    i2u461_40 1134                                      i2u453_40 107A  
                                    i2u461_41 1130                                      i2u453_41 1076  
                                    i2u470_40 11CA                                      i2u462_40 1142  
                                    i2u454_40 1088                                      i2u470_41 11C6  
                                    i2u462_41 113E                                      i2u454_41 1084  
                                    i2u471_40 11D8                                      i2u463_40 1150  
                                    i2u455_40 109E                                      i2u447_40 1016  
                                    i2u471_41 11D4                                      i2u463_41 114C  
                                    i2u455_41 109A                                      i2u447_41 1012  
                                    i2u472_40 11E6                                      i2u464_40 1166  
                                    i2u456_40 10AC                                      i2u448_40 1024  
                                    i2u472_41 11E2                                      i2u464_41 1162  
                                    i2u456_41 10A8                                      i2u448_41 1020  
                                    i2u473_40 11FC                                      i2u465_40 1174  
                                    i2u457_40 10C2                                      i2u449_40 103A  
                                    i2u473_41 11F8                                      i2u465_41 1170  
                                    i2u457_41 10BE                                      i2u449_41 1036  
                                    i2u474_40 120A                                      i2u466_40 1182  
                                    i2u458_40 10DE                                      i2u474_41 1206  
                                    i2u466_41 117E                                      i2u458_41 10DA  
                                    i2u475_40 1218                                      i2u467_40 1198  
                                    i2u459_40 10FA                                      i2u475_41 1214  
                                    i2u467_41 1194                                      i2u459_41 10F6  
                                    i2u468_40 11A6                                      i2u468_41 11A2  
                                    i2u469_40 11B4                                      i2u469_41 11B0  
                                    _RCONbits 0FD0              gpio_pin_direction_initialize@ptr 006F  
                                    _PORT_REG 005C                  convert_8_bit_to_string@F3231 0007  
                                    _TRIS_REG 0048                                    _ADCON0bits 0FC2  
                                  _ADCON1bits 0FC1                                    _ADCON2bits 0FC0  
                      gpio_pin_initialize@ptr 0076                                  _TIMER0_WRITE 184C  
                                 _INTCON2bits 0FF1                                   _INTCON3bits 0FF0  
                                   copy_data0 151A                                     copy_data1 153A  
                                _TIMER1_WRITE 183A                                  _TIMER2_WRITE 18BC  
                                _TIMER3_WRITE 1828                          _TIMER2_INTERRUPT_ISR 17F4  
                   _RBx6_InterruptHandler_LOW 001D                                    _EECON1bits 0FA6  
                                    __Hrparam 0000                                      __Lrparam 0000  
                            ??_gpio_pin_write 0071                   seven_segment_activate@F3068 0035  
                 __end_of_gpio_pin_initialize 1506                        i2_TIMER0_INTERRUPT_ISR 17B4  
                                    __ptext10 17F4                                      __ptext11 18BC  
                                    __ptext20 18DA                                      __ptext12 1734  
                                    __ptext21 18DC                                      __ptext13 183A  
                                    __ptext30 17B4                                      __ptext22 18DE  
                                    __ptext14 1754                                      __ptext31 1882  
                                    __ptext15 184C                                      __ptext32 16E4  
                                    __ptext24 1774                                      __ptext16 16B4  
                                    __ptext33 15DC                                      __ptext25 185E  
                                    __ptext17 1568                                      __ptext34 1616  
                                    __ptext26 180E                                      __ptext18 15A2  
                                    __ptext35 1682                                      __ptext27 18C8  
                                    __ptext19 1650                                      __ptext36 18E0  
                                    __ptext28 1794                                      __ptext37 18E2  
                                    __ptext29 1870                                      __ptext38 18E4  
                                    __ptext39 18E6                  _TIMER1_preload_value_default 0011  
                       ?_TIMER2_INTERRUPT_ISR 0067                         motor_initialize@F3061 0047  
                       motor_initialize@F3063 0046                                      isa$xinst 0000  
                                    int$flags 0077                      ??i2_TIMER1_INTERRUPT_ISR 0069  
                __end_of_TIMER3_INTERRUPT_ISR 1734                                    _INTCONbits 0FF2  
                     ?i2_TIMER3_INTERRUPT_ISR 0067                    _RBx4_InterruptHandler_HIGH 0027  
                                    intlevel1 0000                                      intlevel2 0000  
                  _RBx7_InterruptHandler_HIGH 001B                                    i2_INT1_ISR 18E2  
                                  i2_INT2_ISR 18E0                              TIMER0_WRITE@data 006A  
              __end_ofi2_TIMER3_INTERRUPT_ISR 1794                              TIMER1_WRITE@data 006A  
                      ??_TIMER2_INTERRUPT_ISR 006B                                i2_TIMER0_WRITE 1882  
                              i2_TIMER1_WRITE 1870                                i2_TIMER2_WRITE 18C8  
                              i2_TIMER3_WRITE 185E                                _led_initialize 13F4  
